   1              		.syntax unified
   2              		.cpu cortex-m4
   3              		.eabi_attribute 27, 3
   4              		.fpu fpv4-sp-d16
   5              		.eabi_attribute 20, 1
   6              		.eabi_attribute 21, 1
   7              		.eabi_attribute 23, 3
   8              		.eabi_attribute 24, 1
   9              		.eabi_attribute 25, 1
  10              		.eabi_attribute 26, 1
  11              		.eabi_attribute 30, 4
  12              		.eabi_attribute 34, 1
  13              		.eabi_attribute 18, 4
  14              		.thumb
  15              		.file	"AeroQuadMain.cpp"
  16              		.text
  17              	.Ltext0:
  18              		.cfi_sections	.debug_frame
  19              		.section	.text.timer_set_compare,"ax",%progbits
  20              		.align	1
  21              		.thumb
  22              		.thumb_func
  24              	timer_set_compare:
  25              	.LFB30:
  26              		.file 1 "../Libmaple/libmaple/libmaple/timer.h"
   1:../Libmaple/libmaple/libmaple/timer.h **** /******************************************************************************
   2:../Libmaple/libmaple/libmaple/timer.h ****  * The MIT License
   3:../Libmaple/libmaple/libmaple/timer.h ****  *
   4:../Libmaple/libmaple/libmaple/timer.h ****  * Copyright (c) 2011 LeafLabs, LLC.
   5:../Libmaple/libmaple/libmaple/timer.h ****  *
   6:../Libmaple/libmaple/libmaple/timer.h ****  * Permission is hereby granted, free of charge, to any person
   7:../Libmaple/libmaple/libmaple/timer.h ****  * obtaining a copy of this software and associated documentation
   8:../Libmaple/libmaple/libmaple/timer.h ****  * files (the "Software"), to deal in the Software without
   9:../Libmaple/libmaple/libmaple/timer.h ****  * restriction, including without limitation the rights to use, copy,
  10:../Libmaple/libmaple/libmaple/timer.h ****  * modify, merge, publish, distribute, sublicense, and/or sell copies
  11:../Libmaple/libmaple/libmaple/timer.h ****  * of the Software, and to permit persons to whom the Software is
  12:../Libmaple/libmaple/libmaple/timer.h ****  * furnished to do so, subject to the following conditions:
  13:../Libmaple/libmaple/libmaple/timer.h ****  *
  14:../Libmaple/libmaple/libmaple/timer.h ****  * The above copyright notice and this permission notice shall be
  15:../Libmaple/libmaple/libmaple/timer.h ****  * included in all copies or substantial portions of the Software.
  16:../Libmaple/libmaple/libmaple/timer.h ****  *
  17:../Libmaple/libmaple/libmaple/timer.h ****  * THE SOFTWARE IS PROVIDED "AS IS", WITHOUT WARRANTY OF ANY KIND,
  18:../Libmaple/libmaple/libmaple/timer.h ****  * EXPRESS OR IMPLIED, INCLUDING BUT NOT LIMITED TO THE WARRANTIES OF
  19:../Libmaple/libmaple/libmaple/timer.h ****  * MERCHANTABILITY, FITNESS FOR A PARTICULAR PURPOSE AND
  20:../Libmaple/libmaple/libmaple/timer.h ****  * NONINFRINGEMENT. IN NO EVENT SHALL THE AUTHORS OR COPYRIGHT HOLDERS
  21:../Libmaple/libmaple/libmaple/timer.h ****  * BE LIABLE FOR ANY CLAIM, DAMAGES OR OTHER LIABILITY, WHETHER IN AN
  22:../Libmaple/libmaple/libmaple/timer.h ****  * ACTION OF CONTRACT, TORT OR OTHERWISE, ARISING FROM, OUT OF OR IN
  23:../Libmaple/libmaple/libmaple/timer.h ****  * CONNECTION WITH THE SOFTWARE OR THE USE OR OTHER DEALINGS IN THE
  24:../Libmaple/libmaple/libmaple/timer.h ****  * SOFTWARE.
  25:../Libmaple/libmaple/libmaple/timer.h ****  *****************************************************************************/
  26:../Libmaple/libmaple/libmaple/timer.h **** 
  27:../Libmaple/libmaple/libmaple/timer.h **** /**
  28:../Libmaple/libmaple/libmaple/timer.h ****  * @file   timer.h
  29:../Libmaple/libmaple/libmaple/timer.h ****  * @author Marti Bolivar <mbolivar@leaflabs.com>
  30:../Libmaple/libmaple/libmaple/timer.h ****  * @brief  New-style timer interface.
  31:../Libmaple/libmaple/libmaple/timer.h ****  *
  32:../Libmaple/libmaple/libmaple/timer.h ****  * Replaces old timers.h implementation.
  33:../Libmaple/libmaple/libmaple/timer.h ****  */
  34:../Libmaple/libmaple/libmaple/timer.h **** 
  35:../Libmaple/libmaple/libmaple/timer.h **** #ifndef _TIMERS_H_
  36:../Libmaple/libmaple/libmaple/timer.h **** #define _TIMERS_H_
  37:../Libmaple/libmaple/libmaple/timer.h **** 
  38:../Libmaple/libmaple/libmaple/timer.h **** #include "libmaple.h"
  39:../Libmaple/libmaple/libmaple/timer.h **** #include "rcc.h"
  40:../Libmaple/libmaple/libmaple/timer.h **** #include "nvic.h"
  41:../Libmaple/libmaple/libmaple/timer.h **** #include "bitband.h"
  42:../Libmaple/libmaple/libmaple/timer.h **** 
  43:../Libmaple/libmaple/libmaple/timer.h **** #ifdef __cplusplus
  44:../Libmaple/libmaple/libmaple/timer.h **** extern "C"{
  45:../Libmaple/libmaple/libmaple/timer.h **** #endif
  46:../Libmaple/libmaple/libmaple/timer.h **** 
  47:../Libmaple/libmaple/libmaple/timer.h **** /*
  48:../Libmaple/libmaple/libmaple/timer.h ****  * Register maps and devices
  49:../Libmaple/libmaple/libmaple/timer.h ****  */
  50:../Libmaple/libmaple/libmaple/timer.h **** 
  51:../Libmaple/libmaple/libmaple/timer.h **** /** Advanced control timer register map type */
  52:../Libmaple/libmaple/libmaple/timer.h **** typedef struct timer_adv_reg_map {
  53:../Libmaple/libmaple/libmaple/timer.h ****     __io uint32 CR1;            /**< Control register 1 */
  54:../Libmaple/libmaple/libmaple/timer.h ****     __io uint32 CR2;            /**< Control register 2 */
  55:../Libmaple/libmaple/libmaple/timer.h ****     __io uint32 SMCR;           /**< Slave mode control register */
  56:../Libmaple/libmaple/libmaple/timer.h ****     __io uint32 DIER;           /**< DMA/Interrupt enable register */
  57:../Libmaple/libmaple/libmaple/timer.h ****     __io uint32 SR;             /**< Status register */
  58:../Libmaple/libmaple/libmaple/timer.h ****     __io uint32 EGR;            /**< Event generation register  */
  59:../Libmaple/libmaple/libmaple/timer.h ****     __io uint32 CCMR1;          /**< Capture/compare mode register 1 */
  60:../Libmaple/libmaple/libmaple/timer.h ****     __io uint32 CCMR2;          /**< Capture/compare mode register 2 */
  61:../Libmaple/libmaple/libmaple/timer.h ****     __io uint32 CCER;           /**< Capture/compare enable register */
  62:../Libmaple/libmaple/libmaple/timer.h ****     __io uint32 CNT;            /**< Counter */
  63:../Libmaple/libmaple/libmaple/timer.h ****     __io uint32 PSC;            /**< Prescaler */
  64:../Libmaple/libmaple/libmaple/timer.h ****     __io uint32 ARR;            /**< Auto-reload register */
  65:../Libmaple/libmaple/libmaple/timer.h ****     __io uint32 RCR;            /**< Repetition counter register */
  66:../Libmaple/libmaple/libmaple/timer.h ****     __io uint32 CCR1;           /**< Capture/compare register 1 */
  67:../Libmaple/libmaple/libmaple/timer.h ****     __io uint32 CCR2;           /**< Capture/compare register 2 */
  68:../Libmaple/libmaple/libmaple/timer.h ****     __io uint32 CCR3;           /**< Capture/compare register 3 */
  69:../Libmaple/libmaple/libmaple/timer.h ****     __io uint32 CCR4;           /**< Capture/compare register 4 */
  70:../Libmaple/libmaple/libmaple/timer.h ****     __io uint32 BDTR;           /**< Break and dead-time register */
  71:../Libmaple/libmaple/libmaple/timer.h ****     __io uint32 DCR;            /**< DMA control register */
  72:../Libmaple/libmaple/libmaple/timer.h ****     __io uint32 DMAR;           /**< DMA address for full transfer */
  73:../Libmaple/libmaple/libmaple/timer.h **** } timer_adv_reg_map;
  74:../Libmaple/libmaple/libmaple/timer.h **** 
  75:../Libmaple/libmaple/libmaple/timer.h **** /** General purpose timer register map type */
  76:../Libmaple/libmaple/libmaple/timer.h **** typedef struct timer_gen_reg_map {
  77:../Libmaple/libmaple/libmaple/timer.h ****     __io uint32 CR1;            /**< Control register 1 */
  78:../Libmaple/libmaple/libmaple/timer.h ****     __io uint32 CR2;            /**< Control register 2 */
  79:../Libmaple/libmaple/libmaple/timer.h ****     __io uint32 SMCR;           /**< Slave mode control register */
  80:../Libmaple/libmaple/libmaple/timer.h ****     __io uint32 DIER;           /**< DMA/Interrupt enable register */
  81:../Libmaple/libmaple/libmaple/timer.h ****     __io uint32 SR;             /**< Status register */
  82:../Libmaple/libmaple/libmaple/timer.h ****     __io uint32 EGR;            /**< Event generation register  */
  83:../Libmaple/libmaple/libmaple/timer.h ****     __io uint32 CCMR1;          /**< Capture/compare mode register 1 */
  84:../Libmaple/libmaple/libmaple/timer.h ****     __io uint32 CCMR2;          /**< Capture/compare mode register 2 */
  85:../Libmaple/libmaple/libmaple/timer.h ****     __io uint32 CCER;           /**< Capture/compare enable register */
  86:../Libmaple/libmaple/libmaple/timer.h ****     __io uint32 CNT;            /**< Counter */
  87:../Libmaple/libmaple/libmaple/timer.h ****     __io uint32 PSC;            /**< Prescaler */
  88:../Libmaple/libmaple/libmaple/timer.h ****     __io uint32 ARR;            /**< Auto-reload register */
  89:../Libmaple/libmaple/libmaple/timer.h ****     const uint32 RESERVED1;     /**< Reserved */
  90:../Libmaple/libmaple/libmaple/timer.h ****     __io uint32 CCR1;           /**< Capture/compare register 1 */
  91:../Libmaple/libmaple/libmaple/timer.h ****     __io uint32 CCR2;           /**< Capture/compare register 2 */
  92:../Libmaple/libmaple/libmaple/timer.h ****     __io uint32 CCR3;           /**< Capture/compare register 3 */
  93:../Libmaple/libmaple/libmaple/timer.h ****     __io uint32 CCR4;           /**< Capture/compare register 4 */
  94:../Libmaple/libmaple/libmaple/timer.h ****     const uint32 RESERVED2;     /**< Reserved */
  95:../Libmaple/libmaple/libmaple/timer.h ****     __io uint32 DCR;            /**< DMA control register */
  96:../Libmaple/libmaple/libmaple/timer.h ****     __io uint32 DMAR;           /**< DMA address for full transfer */
  97:../Libmaple/libmaple/libmaple/timer.h **** } timer_gen_reg_map;
  98:../Libmaple/libmaple/libmaple/timer.h **** 
  99:../Libmaple/libmaple/libmaple/timer.h **** /** Basic timer register map type */
 100:../Libmaple/libmaple/libmaple/timer.h **** typedef struct timer_bas_reg_map {
 101:../Libmaple/libmaple/libmaple/timer.h ****     __io uint32 CR1;            /**< Control register 1 */
 102:../Libmaple/libmaple/libmaple/timer.h ****     __io uint32 CR2;            /**< Control register 2 */
 103:../Libmaple/libmaple/libmaple/timer.h ****     const uint32 RESERVED1;     /**< Reserved */
 104:../Libmaple/libmaple/libmaple/timer.h ****     __io uint32 DIER;           /**< DMA/Interrupt enable register */
 105:../Libmaple/libmaple/libmaple/timer.h ****     __io uint32 SR;             /**< Status register */
 106:../Libmaple/libmaple/libmaple/timer.h ****     __io uint32 EGR;            /**< Event generation register  */
 107:../Libmaple/libmaple/libmaple/timer.h ****     const uint32 RESERVED2;     /**< Reserved */
 108:../Libmaple/libmaple/libmaple/timer.h ****     const uint32 RESERVED3;     /**< Reserved */
 109:../Libmaple/libmaple/libmaple/timer.h ****     const uint32 RESERVED4;     /**< Reserved */
 110:../Libmaple/libmaple/libmaple/timer.h ****     __io uint32 CNT;            /**< Counter */
 111:../Libmaple/libmaple/libmaple/timer.h ****     __io uint32 PSC;            /**< Prescaler */
 112:../Libmaple/libmaple/libmaple/timer.h ****     __io uint32 ARR;            /**< Auto-reload register */
 113:../Libmaple/libmaple/libmaple/timer.h **** } timer_bas_reg_map;
 114:../Libmaple/libmaple/libmaple/timer.h **** 
 115:../Libmaple/libmaple/libmaple/timer.h **** 
 116:../Libmaple/libmaple/libmaple/timer.h **** #ifdef STM32F2
 117:../Libmaple/libmaple/libmaple/timer.h ****   /** Timer 1 register map base pointer */
 118:../Libmaple/libmaple/libmaple/timer.h ****   #define TIMER1_BASE        ((struct timer_adv_reg_map*)0x40010000)
 119:../Libmaple/libmaple/libmaple/timer.h **** #else
 120:../Libmaple/libmaple/libmaple/timer.h ****   /** Timer 1 register map base pointer */
 121:../Libmaple/libmaple/libmaple/timer.h ****   #define TIMER1_BASE        ((struct timer_adv_reg_map*)0x40012C00)
 122:../Libmaple/libmaple/libmaple/timer.h **** #endif
 123:../Libmaple/libmaple/libmaple/timer.h **** /** Timer 2 register map base pointer */
 124:../Libmaple/libmaple/libmaple/timer.h **** #define TIMER2_BASE        ((struct timer_gen_reg_map*)0x40000000)
 125:../Libmaple/libmaple/libmaple/timer.h **** /** Timer 3 register map base pointer */
 126:../Libmaple/libmaple/libmaple/timer.h **** #define TIMER3_BASE        ((struct timer_gen_reg_map*)0x40000400)
 127:../Libmaple/libmaple/libmaple/timer.h **** /** Timer 4 register map base pointer */
 128:../Libmaple/libmaple/libmaple/timer.h **** #define TIMER4_BASE        ((struct timer_gen_reg_map*)0x40000800)
 129:../Libmaple/libmaple/libmaple/timer.h **** #ifdef STM32_HIGH_DENSITY
 130:../Libmaple/libmaple/libmaple/timer.h **** /** Timer 5 register map base pointer */
 131:../Libmaple/libmaple/libmaple/timer.h **** #define TIMER5_BASE        ((struct timer_gen_reg_map*)0x40000C00)
 132:../Libmaple/libmaple/libmaple/timer.h **** /** Timer 6 register map base pointer */
 133:../Libmaple/libmaple/libmaple/timer.h **** #define TIMER6_BASE        ((struct timer_bas_reg_map*)0x40001000)
 134:../Libmaple/libmaple/libmaple/timer.h **** /** Timer 7 register map base pointer */
 135:../Libmaple/libmaple/libmaple/timer.h **** #define TIMER7_BASE        ((struct timer_bas_reg_map*)0x40001400)
 136:../Libmaple/libmaple/libmaple/timer.h **** 
 137:../Libmaple/libmaple/libmaple/timer.h **** #ifdef STM32F2
 138:../Libmaple/libmaple/libmaple/timer.h ****   /** Timer 8 register map base pointer */
 139:../Libmaple/libmaple/libmaple/timer.h ****   #define TIMER8_BASE        ((struct timer_adv_reg_map*)0x40010400)
 140:../Libmaple/libmaple/libmaple/timer.h **** #else
 141:../Libmaple/libmaple/libmaple/timer.h ****   /** Timer 8 register map base pointer */
 142:../Libmaple/libmaple/libmaple/timer.h ****   #define TIMER8_BASE        ((struct timer_adv_reg_map*)0x40013400)
 143:../Libmaple/libmaple/libmaple/timer.h **** #endif
 144:../Libmaple/libmaple/libmaple/timer.h **** #endif
 145:../Libmaple/libmaple/libmaple/timer.h **** 
 146:../Libmaple/libmaple/libmaple/timer.h **** /*
 147:../Libmaple/libmaple/libmaple/timer.h ****  * Timer devices
 148:../Libmaple/libmaple/libmaple/timer.h ****  */
 149:../Libmaple/libmaple/libmaple/timer.h **** 
 150:../Libmaple/libmaple/libmaple/timer.h **** /**
 151:../Libmaple/libmaple/libmaple/timer.h ****  * @brief Timer register map type.
 152:../Libmaple/libmaple/libmaple/timer.h ****  *
 153:../Libmaple/libmaple/libmaple/timer.h ****  * Just holds a pointer to the correct type of register map, based on
 154:../Libmaple/libmaple/libmaple/timer.h ****  * the timer's type.
 155:../Libmaple/libmaple/libmaple/timer.h ****  */
 156:../Libmaple/libmaple/libmaple/timer.h **** typedef union timer_reg_map {
 157:../Libmaple/libmaple/libmaple/timer.h ****     timer_adv_reg_map *adv;     /**< Advanced register map */
 158:../Libmaple/libmaple/libmaple/timer.h ****     timer_gen_reg_map *gen;     /**< General purpose register map */
 159:../Libmaple/libmaple/libmaple/timer.h ****     timer_bas_reg_map *bas;     /**< Basic register map */
 160:../Libmaple/libmaple/libmaple/timer.h **** } timer_reg_map;
 161:../Libmaple/libmaple/libmaple/timer.h **** 
 162:../Libmaple/libmaple/libmaple/timer.h **** /**
 163:../Libmaple/libmaple/libmaple/timer.h ****  * @brief Timer type
 164:../Libmaple/libmaple/libmaple/timer.h ****  *
 165:../Libmaple/libmaple/libmaple/timer.h ****  * Type marker for timer_dev.
 166:../Libmaple/libmaple/libmaple/timer.h ****  *
 167:../Libmaple/libmaple/libmaple/timer.h ****  * @see timer_dev
 168:../Libmaple/libmaple/libmaple/timer.h ****  */
 169:../Libmaple/libmaple/libmaple/timer.h **** typedef enum timer_type {
 170:../Libmaple/libmaple/libmaple/timer.h ****     TIMER_ADVANCED,             /**< Advanced type */
 171:../Libmaple/libmaple/libmaple/timer.h ****     TIMER_GENERAL,              /**< General purpose type */
 172:../Libmaple/libmaple/libmaple/timer.h ****     TIMER_BASIC                 /**< Basic type */
 173:../Libmaple/libmaple/libmaple/timer.h **** } timer_type;
 174:../Libmaple/libmaple/libmaple/timer.h **** 
 175:../Libmaple/libmaple/libmaple/timer.h **** /** Timer device type */
 176:../Libmaple/libmaple/libmaple/timer.h **** typedef struct timer_dev {
 177:../Libmaple/libmaple/libmaple/timer.h ****     timer_reg_map regs;         /**< Register map */
 178:../Libmaple/libmaple/libmaple/timer.h ****     rcc_clk_id clk_id;          /**< RCC clock information */
 179:../Libmaple/libmaple/libmaple/timer.h ****     timer_type type;            /**< Timer's type */
 180:../Libmaple/libmaple/libmaple/timer.h ****     voidFuncPtr handlers[];     /**< User IRQ handlers */
 181:../Libmaple/libmaple/libmaple/timer.h **** } timer_dev;
 182:../Libmaple/libmaple/libmaple/timer.h **** 
 183:../Libmaple/libmaple/libmaple/timer.h **** extern timer_dev *TIMER1;
 184:../Libmaple/libmaple/libmaple/timer.h **** extern timer_dev *TIMER2;
 185:../Libmaple/libmaple/libmaple/timer.h **** extern timer_dev *TIMER3;
 186:../Libmaple/libmaple/libmaple/timer.h **** extern timer_dev *TIMER4;
 187:../Libmaple/libmaple/libmaple/timer.h **** #ifdef STM32_HIGH_DENSITY
 188:../Libmaple/libmaple/libmaple/timer.h **** extern timer_dev *TIMER5;
 189:../Libmaple/libmaple/libmaple/timer.h **** extern timer_dev *TIMER6;
 190:../Libmaple/libmaple/libmaple/timer.h **** extern timer_dev *TIMER7;
 191:../Libmaple/libmaple/libmaple/timer.h **** extern timer_dev *TIMER8;
 192:../Libmaple/libmaple/libmaple/timer.h **** #endif
 193:../Libmaple/libmaple/libmaple/timer.h **** 
 194:../Libmaple/libmaple/libmaple/timer.h **** /*
 195:../Libmaple/libmaple/libmaple/timer.h ****  * Register bit definitions
 196:../Libmaple/libmaple/libmaple/timer.h ****  */
 197:../Libmaple/libmaple/libmaple/timer.h **** 
 198:../Libmaple/libmaple/libmaple/timer.h **** /* Control register 1 (CR1) */
 199:../Libmaple/libmaple/libmaple/timer.h **** 
 200:../Libmaple/libmaple/libmaple/timer.h **** #define TIMER_CR1_ARPE_BIT              7
 201:../Libmaple/libmaple/libmaple/timer.h **** #define TIMER_CR1_DIR_BIT               4
 202:../Libmaple/libmaple/libmaple/timer.h **** #define TIMER_CR1_OPM_BIT               3
 203:../Libmaple/libmaple/libmaple/timer.h **** #define TIMER_CR1_URS_BIT               2
 204:../Libmaple/libmaple/libmaple/timer.h **** #define TIMER_CR1_UDIS_BIT              1
 205:../Libmaple/libmaple/libmaple/timer.h **** #define TIMER_CR1_CEN_BIT               0
 206:../Libmaple/libmaple/libmaple/timer.h **** 
 207:../Libmaple/libmaple/libmaple/timer.h **** #define TIMER_CR1_CKD                   (0x3 << 8)
 208:../Libmaple/libmaple/libmaple/timer.h **** #define TIMER_CR1_CKD_1TCKINT           (0x0 << 8)
 209:../Libmaple/libmaple/libmaple/timer.h **** #define TIMER_CR1_CKD_2TCKINT           (0x1 << 8)
 210:../Libmaple/libmaple/libmaple/timer.h **** #define TIMER_CR1_CKD_4TICKINT          (0x2 << 8)
 211:../Libmaple/libmaple/libmaple/timer.h **** #define TIMER_CR1_ARPE                  BIT(TIMER_CR1_ARPE_BIT)
 212:../Libmaple/libmaple/libmaple/timer.h **** #define TIMER_CR1_CKD_CMS               (0x3 << 5)
 213:../Libmaple/libmaple/libmaple/timer.h **** #define TIMER_CR1_CKD_CMS_EDGE          (0x0 << 5)
 214:../Libmaple/libmaple/libmaple/timer.h **** #define TIMER_CR1_CKD_CMS_CENTER1       (0x1 << 5)
 215:../Libmaple/libmaple/libmaple/timer.h **** #define TIMER_CR1_CKD_CMS_CENTER2       (0x2 << 5)
 216:../Libmaple/libmaple/libmaple/timer.h **** #define TIMER_CR1_CKD_CMS_CENTER3       (0x3 << 5)
 217:../Libmaple/libmaple/libmaple/timer.h **** #define TIMER_CR1_DIR                   BIT(TIMER_CR1_DIR_BIT)
 218:../Libmaple/libmaple/libmaple/timer.h **** #define TIMER_CR1_OPM                   BIT(TIMER_CR1_OPM_BIT)
 219:../Libmaple/libmaple/libmaple/timer.h **** #define TIMER_CR1_URS                   BIT(TIMER_CR1_URS_BIT)
 220:../Libmaple/libmaple/libmaple/timer.h **** #define TIMER_CR1_UDIS                  BIT(TIMER_CR1_UDIS_BIT)
 221:../Libmaple/libmaple/libmaple/timer.h **** #define TIMER_CR1_CEN                   BIT(TIMER_CR1_CEN_BIT)
 222:../Libmaple/libmaple/libmaple/timer.h **** 
 223:../Libmaple/libmaple/libmaple/timer.h **** /* Control register 2 (CR2) */
 224:../Libmaple/libmaple/libmaple/timer.h **** 
 225:../Libmaple/libmaple/libmaple/timer.h **** #define TIMER_CR2_OIS4_BIT              14
 226:../Libmaple/libmaple/libmaple/timer.h **** #define TIMER_CR2_OIS3N_BIT             13
 227:../Libmaple/libmaple/libmaple/timer.h **** #define TIMER_CR2_OIS3_BIT              12
 228:../Libmaple/libmaple/libmaple/timer.h **** #define TIMER_CR2_OIS2N_BIT             11
 229:../Libmaple/libmaple/libmaple/timer.h **** #define TIMER_CR2_OIS2_BIT              10
 230:../Libmaple/libmaple/libmaple/timer.h **** #define TIMER_CR2_OIS1N_BIT             9
 231:../Libmaple/libmaple/libmaple/timer.h **** #define TIMER_CR2_OIS1_BIT              8
 232:../Libmaple/libmaple/libmaple/timer.h **** #define TIMER_CR2_TI1S_BIT              7 /* tills? yikes */
 233:../Libmaple/libmaple/libmaple/timer.h **** #define TIMER_CR2_CCDS_BIT              3
 234:../Libmaple/libmaple/libmaple/timer.h **** #define TIMER_CR2_CCUS_BIT              2
 235:../Libmaple/libmaple/libmaple/timer.h **** #define TIMER_CR2_CCPC_BIT              0
 236:../Libmaple/libmaple/libmaple/timer.h **** 
 237:../Libmaple/libmaple/libmaple/timer.h **** #define TIMER_CR2_OIS4                  BIT(TIMER_CR2_OIS4_BIT)
 238:../Libmaple/libmaple/libmaple/timer.h **** #define TIMER_CR2_OIS3N                 BIT(TIMER_CR2_OIS3N_BIT)
 239:../Libmaple/libmaple/libmaple/timer.h **** #define TIMER_CR2_OIS3                  BIT(TIMER_CR2_OIS3_BIT)
 240:../Libmaple/libmaple/libmaple/timer.h **** #define TIMER_CR2_OIS2N                 BIT(TIMER_CR2_OIS2N_BIT)
 241:../Libmaple/libmaple/libmaple/timer.h **** #define TIMER_CR2_OIS2                  BIT(TIMER_CR2_OIS2_BIT)
 242:../Libmaple/libmaple/libmaple/timer.h **** #define TIMER_CR2_OIS1N                 BIT(TIMER_CR2_OIS1N_BIT)
 243:../Libmaple/libmaple/libmaple/timer.h **** #define TIMER_CR2_OIS1                  BIT(TIMER_CR2_OIS1_BIT)
 244:../Libmaple/libmaple/libmaple/timer.h **** #define TIMER_CR2_TI1S                  BIT(TIMER_CR2_TI1S_BIT)
 245:../Libmaple/libmaple/libmaple/timer.h **** #define TIMER_CR2_MMS                   (0x7 << 4)
 246:../Libmaple/libmaple/libmaple/timer.h **** #define TIMER_CR2_MMS_RESET             (0x0 << 4)
 247:../Libmaple/libmaple/libmaple/timer.h **** #define TIMER_CR2_MMS_ENABLE            (0x1 << 4)
 248:../Libmaple/libmaple/libmaple/timer.h **** #define TIMER_CR2_MMS_UPDATE            (0x2 << 4)
 249:../Libmaple/libmaple/libmaple/timer.h **** #define TIMER_CR2_MMS_COMPARE_PULSE     (0x3 << 4)
 250:../Libmaple/libmaple/libmaple/timer.h **** #define TIMER_CR2_MMS_COMPARE_OC1REF    (0x4 << 4)
 251:../Libmaple/libmaple/libmaple/timer.h **** #define TIMER_CR2_MMS_COMPARE_OC2REF    (0x5 << 4)
 252:../Libmaple/libmaple/libmaple/timer.h **** #define TIMER_CR2_MMS_COMPARE_OC3REF    (0x6 << 4)
 253:../Libmaple/libmaple/libmaple/timer.h **** #define TIMER_CR2_MMS_COMPARE_OC4REF    (0x7 << 4)
 254:../Libmaple/libmaple/libmaple/timer.h **** #define TIMER_CR2_CCDS                  BIT(TIMER_CR2_CCDS_BIT)
 255:../Libmaple/libmaple/libmaple/timer.h **** #define TIMER_CR2_CCUS                  BIT(TIMER_CR2_CCUS_BIT)
 256:../Libmaple/libmaple/libmaple/timer.h **** #define TIMER_CR2_CCPC                  BIT(TIMER_CR2_CCPC_BIT)
 257:../Libmaple/libmaple/libmaple/timer.h **** 
 258:../Libmaple/libmaple/libmaple/timer.h **** /* Slave mode control register (SMCR) */
 259:../Libmaple/libmaple/libmaple/timer.h **** 
 260:../Libmaple/libmaple/libmaple/timer.h **** #define TIMER_SMCR_ETP_BIT              15
 261:../Libmaple/libmaple/libmaple/timer.h **** #define TIMER_SMCR_ECE_BIT              14
 262:../Libmaple/libmaple/libmaple/timer.h **** #define TIMER_SMCR_MSM_BIT              7
 263:../Libmaple/libmaple/libmaple/timer.h **** 
 264:../Libmaple/libmaple/libmaple/timer.h **** #define TIMER_SMCR_ETP                  BIT(TIMER_SMCR_ETP_BIT)
 265:../Libmaple/libmaple/libmaple/timer.h **** #define TIMER_SMCR_ECE                  BIT(TIMER_SMCR_ECE_BIT)
 266:../Libmaple/libmaple/libmaple/timer.h **** #define TIMER_SMCR_ETPS                 (0x3 << 12)
 267:../Libmaple/libmaple/libmaple/timer.h **** #define TIMER_SMCR_ETPS_OFF             (0x0 << 12)
 268:../Libmaple/libmaple/libmaple/timer.h **** #define TIMER_SMCR_ETPS_DIV2            (0x1 << 12)
 269:../Libmaple/libmaple/libmaple/timer.h **** #define TIMER_SMCR_ETPS_DIV4            (0x2 << 12)
 270:../Libmaple/libmaple/libmaple/timer.h **** #define TIMER_SMCR_ETPS_DIV8            (0x3 << 12)
 271:../Libmaple/libmaple/libmaple/timer.h **** #define TIMER_SMCR_ETF                  (0xF << 12)
 272:../Libmaple/libmaple/libmaple/timer.h **** #define TIMER_SMCR_MSM                  BIT(TIMER_SMCR_MSM_BIT)
 273:../Libmaple/libmaple/libmaple/timer.h **** #define TIMER_SMCR_TS                   (0x3 << 4)
 274:../Libmaple/libmaple/libmaple/timer.h **** #define TIMER_SMCR_TS_ITR0              (0x0 << 4)
 275:../Libmaple/libmaple/libmaple/timer.h **** #define TIMER_SMCR_TS_ITR1              (0x1 << 4)
 276:../Libmaple/libmaple/libmaple/timer.h **** #define TIMER_SMCR_TS_ITR2              (0x2 << 4)
 277:../Libmaple/libmaple/libmaple/timer.h **** #define TIMER_SMCR_TS_ITR3              (0x3 << 4)
 278:../Libmaple/libmaple/libmaple/timer.h **** #define TIMER_SMCR_TS_TI1F_ED           (0x4 << 4)
 279:../Libmaple/libmaple/libmaple/timer.h **** #define TIMER_SMCR_TS_TI1FP1            (0x5 << 4)
 280:../Libmaple/libmaple/libmaple/timer.h **** #define TIMER_SMCR_TS_TI2FP2            (0x6 << 4)
 281:../Libmaple/libmaple/libmaple/timer.h **** #define TIMER_SMCR_TS_ETRF              (0x7 << 4)
 282:../Libmaple/libmaple/libmaple/timer.h **** #define TIMER_SMCR_SMS                  0x3
 283:../Libmaple/libmaple/libmaple/timer.h **** #define TIMER_SMCR_SMS_DISABLED         0x0
 284:../Libmaple/libmaple/libmaple/timer.h **** #define TIMER_SMCR_SMS_ENCODER1         0x1
 285:../Libmaple/libmaple/libmaple/timer.h **** #define TIMER_SMCR_SMS_ENCODER2         0x2
 286:../Libmaple/libmaple/libmaple/timer.h **** #define TIMER_SMCR_SMS_ENCODER3         0x3
 287:../Libmaple/libmaple/libmaple/timer.h **** #define TIMER_SMCR_SMS_RESET            0x4
 288:../Libmaple/libmaple/libmaple/timer.h **** #define TIMER_SMCR_SMS_GATED            0x5
 289:../Libmaple/libmaple/libmaple/timer.h **** #define TIMER_SMCR_SMS_TRIGGER          0x6
 290:../Libmaple/libmaple/libmaple/timer.h **** #define TIMER_SMCR_SMS_EXTERNAL         0x7
 291:../Libmaple/libmaple/libmaple/timer.h **** 
 292:../Libmaple/libmaple/libmaple/timer.h **** /* DMA/Interrupt enable register (DIER) */
 293:../Libmaple/libmaple/libmaple/timer.h **** 
 294:../Libmaple/libmaple/libmaple/timer.h **** #define TIMER_DIER_TDE_BIT              14
 295:../Libmaple/libmaple/libmaple/timer.h **** #define TIMER_DIER_CC4DE_BIT            12
 296:../Libmaple/libmaple/libmaple/timer.h **** #define TIMER_DIER_CC3DE_BIT            11
 297:../Libmaple/libmaple/libmaple/timer.h **** #define TIMER_DIER_CC2DE_BIT            10
 298:../Libmaple/libmaple/libmaple/timer.h **** #define TIMER_DIER_CC1DE_BIT            9
 299:../Libmaple/libmaple/libmaple/timer.h **** #define TIMER_DIER_UDE_BIT              8
 300:../Libmaple/libmaple/libmaple/timer.h **** #define TIMER_DIER_TIE_BIT              6
 301:../Libmaple/libmaple/libmaple/timer.h **** #define TIMER_DIER_CC4IE_BIT            4
 302:../Libmaple/libmaple/libmaple/timer.h **** #define TIMER_DIER_CC3IE_BIT            3
 303:../Libmaple/libmaple/libmaple/timer.h **** #define TIMER_DIER_CC2IE_BIT            2
 304:../Libmaple/libmaple/libmaple/timer.h **** #define TIMER_DIER_CC1IE_BIT            1
 305:../Libmaple/libmaple/libmaple/timer.h **** #define TIMER_DIER_UIE_BIT              0
 306:../Libmaple/libmaple/libmaple/timer.h **** 
 307:../Libmaple/libmaple/libmaple/timer.h **** #define TIMER_DIER_TDE                  BIT(TIMER_DIER_TDE_BIT)
 308:../Libmaple/libmaple/libmaple/timer.h **** #define TIMER_DIER_CC4DE                BIT(TIMER_DIER_CC4DE_BIT)
 309:../Libmaple/libmaple/libmaple/timer.h **** #define TIMER_DIER_CC3DE                BIT(TIMER_DIER_CC3DE_BIT)
 310:../Libmaple/libmaple/libmaple/timer.h **** #define TIMER_DIER_CC2DE                BIT(TIMER_DIER_CC2DE_BIT)
 311:../Libmaple/libmaple/libmaple/timer.h **** #define TIMER_DIER_CC1DE                BIT(TIMER_DIER_CC1DE_BIT)
 312:../Libmaple/libmaple/libmaple/timer.h **** #define TIMER_DIER_UDE                  BIT(TIMER_DIER_UDE_BIT)
 313:../Libmaple/libmaple/libmaple/timer.h **** #define TIMER_DIER_TIE                  BIT(TIMER_DIER_TIE_BIT)
 314:../Libmaple/libmaple/libmaple/timer.h **** #define TIMER_DIER_CC4IE                BIT(TIMER_DIER_CC4IE_BIT)
 315:../Libmaple/libmaple/libmaple/timer.h **** #define TIMER_DIER_CC3IE                BIT(TIMER_DIER_CC3IE_BIT)
 316:../Libmaple/libmaple/libmaple/timer.h **** #define TIMER_DIER_CC2IE                BIT(TIMER_DIER_CC2IE_BIT)
 317:../Libmaple/libmaple/libmaple/timer.h **** #define TIMER_DIER_CC1IE                BIT(TIMER_DIER_CC1IE_BIT)
 318:../Libmaple/libmaple/libmaple/timer.h **** #define TIMER_DIER_UIE                  BIT(TIMER_DIER_UIE_BIT)
 319:../Libmaple/libmaple/libmaple/timer.h **** 
 320:../Libmaple/libmaple/libmaple/timer.h **** /* Status register (SR) */
 321:../Libmaple/libmaple/libmaple/timer.h **** 
 322:../Libmaple/libmaple/libmaple/timer.h **** #define TIMER_SR_CC4OF_BIT              12
 323:../Libmaple/libmaple/libmaple/timer.h **** #define TIMER_SR_CC3OF_BIT              11
 324:../Libmaple/libmaple/libmaple/timer.h **** #define TIMER_SR_CC2OF_BIT              10
 325:../Libmaple/libmaple/libmaple/timer.h **** #define TIMER_SR_CC1OF_BIT              9
 326:../Libmaple/libmaple/libmaple/timer.h **** #define TIMER_SR_BIF_BIT                7
 327:../Libmaple/libmaple/libmaple/timer.h **** #define TIMER_SR_TIF_BIT                6
 328:../Libmaple/libmaple/libmaple/timer.h **** #define TIMER_SR_COMIF_BIT              5
 329:../Libmaple/libmaple/libmaple/timer.h **** #define TIMER_SR_CC4IF_BIT              4
 330:../Libmaple/libmaple/libmaple/timer.h **** #define TIMER_SR_CC3IF_BIT              3
 331:../Libmaple/libmaple/libmaple/timer.h **** #define TIMER_SR_CC2IF_BIT              2
 332:../Libmaple/libmaple/libmaple/timer.h **** #define TIMER_SR_CC1IF_BIT              1
 333:../Libmaple/libmaple/libmaple/timer.h **** #define TIMER_SR_UIF_BIT                0
 334:../Libmaple/libmaple/libmaple/timer.h **** 
 335:../Libmaple/libmaple/libmaple/timer.h **** #define TIMER_SR_CC4OF                  BIT(TIMER_SR_CC4OF_BIT)
 336:../Libmaple/libmaple/libmaple/timer.h **** #define TIMER_SR_CC3OF                  BIT(TIMER_SR_CC3OF_BIT)
 337:../Libmaple/libmaple/libmaple/timer.h **** #define TIMER_SR_CC2OF                  BIT(TIMER_SR_CC2OF_BIT)
 338:../Libmaple/libmaple/libmaple/timer.h **** #define TIMER_SR_CC1OF                  BIT(TIMER_SR_CC1OF_BIT)
 339:../Libmaple/libmaple/libmaple/timer.h **** #define TIMER_SR_BIF                    BIT(TIMER_SR_BIF_BIT)
 340:../Libmaple/libmaple/libmaple/timer.h **** #define TIMER_SR_TIF                    BIT(TIMER_SR_TIF_BIT)
 341:../Libmaple/libmaple/libmaple/timer.h **** #define TIMER_SR_COMIF                  BIT(TIMER_SR_COMIF_BIT)
 342:../Libmaple/libmaple/libmaple/timer.h **** #define TIMER_SR_CC4IF                  BIT(TIMER_SR_CC4IF_BIT)
 343:../Libmaple/libmaple/libmaple/timer.h **** #define TIMER_SR_CC3IF                  BIT(TIMER_SR_CC3IF_BIT)
 344:../Libmaple/libmaple/libmaple/timer.h **** #define TIMER_SR_CC2IF                  BIT(TIMER_SR_CC2IF_BIT)
 345:../Libmaple/libmaple/libmaple/timer.h **** #define TIMER_SR_CC1IF                  BIT(TIMER_SR_CC1IF_BIT)
 346:../Libmaple/libmaple/libmaple/timer.h **** #define TIMER_SR_UIF                    BIT(TIMER_SR_UIF_BIT)
 347:../Libmaple/libmaple/libmaple/timer.h **** 
 348:../Libmaple/libmaple/libmaple/timer.h **** /* Event generation register (EGR) */
 349:../Libmaple/libmaple/libmaple/timer.h **** 
 350:../Libmaple/libmaple/libmaple/timer.h **** #define TIMER_EGR_TG_BIT                6
 351:../Libmaple/libmaple/libmaple/timer.h **** #define TIMER_EGR_CC4G_BIT              4
 352:../Libmaple/libmaple/libmaple/timer.h **** #define TIMER_EGR_CC3G_BIT              3
 353:../Libmaple/libmaple/libmaple/timer.h **** #define TIMER_EGR_CC2G_BIT              2
 354:../Libmaple/libmaple/libmaple/timer.h **** #define TIMER_EGR_CC1G_BIT              1
 355:../Libmaple/libmaple/libmaple/timer.h **** #define TIMER_EGR_UG_BIT                0
 356:../Libmaple/libmaple/libmaple/timer.h **** 
 357:../Libmaple/libmaple/libmaple/timer.h **** #define TIMER_EGR_TG                    BIT(TIMER_EGR_TG_BIT)
 358:../Libmaple/libmaple/libmaple/timer.h **** #define TIMER_EGR_CC4G                  BIT(TIMER_EGR_CC4G_BIT)
 359:../Libmaple/libmaple/libmaple/timer.h **** #define TIMER_EGR_CC3G                  BIT(TIMER_EGR_CC3G_BIT)
 360:../Libmaple/libmaple/libmaple/timer.h **** #define TIMER_EGR_CC2G                  BIT(TIMER_EGR_CC2G_BIT)
 361:../Libmaple/libmaple/libmaple/timer.h **** #define TIMER_EGR_CC1G                  BIT(TIMER_EGR_CC1G_BIT)
 362:../Libmaple/libmaple/libmaple/timer.h **** #define TIMER_EGR_UG                    BIT(TIMER_EGR_UG_BIT)
 363:../Libmaple/libmaple/libmaple/timer.h **** 
 364:../Libmaple/libmaple/libmaple/timer.h **** /* Capture/compare mode registers, common values */
 365:../Libmaple/libmaple/libmaple/timer.h **** 
 366:../Libmaple/libmaple/libmaple/timer.h **** #define TIMER_CCMR_CCS_OUTPUT           0x0
 367:../Libmaple/libmaple/libmaple/timer.h **** #define TIMER_CCMR_CCS_INPUT_TI1        0x1
 368:../Libmaple/libmaple/libmaple/timer.h **** #define TIMER_CCMR_CCS_INPUT_TI2        0x2
 369:../Libmaple/libmaple/libmaple/timer.h **** #define TIMER_CCMR_CCS_INPUT_TRC        0x3
 370:../Libmaple/libmaple/libmaple/timer.h **** 
 371:../Libmaple/libmaple/libmaple/timer.h **** /* Capture/compare mode register 1 (CCMR1) */
 372:../Libmaple/libmaple/libmaple/timer.h **** 
 373:../Libmaple/libmaple/libmaple/timer.h **** #define TIMER_CCMR1_OC2CE_BIT           15
 374:../Libmaple/libmaple/libmaple/timer.h **** #define TIMER_CCMR1_OC2PE_BIT           11
 375:../Libmaple/libmaple/libmaple/timer.h **** #define TIMER_CCMR1_OC2FE_BIT           10
 376:../Libmaple/libmaple/libmaple/timer.h **** #define TIMER_CCMR1_OC1CE_BIT           7
 377:../Libmaple/libmaple/libmaple/timer.h **** #define TIMER_CCMR1_OC1PE_BIT           3
 378:../Libmaple/libmaple/libmaple/timer.h **** #define TIMER_CCMR1_OC1FE_BIT           2
 379:../Libmaple/libmaple/libmaple/timer.h **** 
 380:../Libmaple/libmaple/libmaple/timer.h **** #define TIMER_CCMR1_OC2CE               BIT(TIMER_CCMR1_OC2CE_BIT)
 381:../Libmaple/libmaple/libmaple/timer.h **** #define TIMER_CCMR1_OC2M                (0x3 << 12)
 382:../Libmaple/libmaple/libmaple/timer.h **** #define TIMER_CCMR1_IC2F                (0xF << 12)
 383:../Libmaple/libmaple/libmaple/timer.h **** #define TIMER_CCMR1_OC2PE               BIT(TIMER_CCMR1_OC2PE_BIT)
 384:../Libmaple/libmaple/libmaple/timer.h **** #define TIMER_CCMR1_OC2FE               BIT(TIMER_CCMR1_OC2FE_BIT)
 385:../Libmaple/libmaple/libmaple/timer.h **** #define TIMER_CCMR1_IC2PSC              (0x3 << 10)
 386:../Libmaple/libmaple/libmaple/timer.h **** #define TIMER_CCMR1_CC2S                (0x3 << 8)
 387:../Libmaple/libmaple/libmaple/timer.h **** #define TIMER_CCMR1_CC2S_OUTPUT         (TIMER_CCMR_CCS_OUTPUT << 8)
 388:../Libmaple/libmaple/libmaple/timer.h **** #define TIMER_CCMR1_CC2S_INPUT_TI1      (TIMER_CCMR_CCS_INPUT_TI1 << 8)
 389:../Libmaple/libmaple/libmaple/timer.h **** #define TIMER_CCMR1_CC2S_INPUT_TI2      (TIMER_CCMR_CCS_INPUT_TI2 << 8)
 390:../Libmaple/libmaple/libmaple/timer.h **** #define TIMER_CCMR1_CC2S_INPUT_TRC      (TIMER_CCMR_CCS_INPUT_TRC << 8)
 391:../Libmaple/libmaple/libmaple/timer.h **** #define TIMER_CCMR1_OC1CE               BIT(TIMER_CCMR1_OC1CE_BIT)
 392:../Libmaple/libmaple/libmaple/timer.h **** #define TIMER_CCMR1_OC1M                (0x3 << 4)
 393:../Libmaple/libmaple/libmaple/timer.h **** #define TIMER_CCMR1_IC1F                (0xF << 4)
 394:../Libmaple/libmaple/libmaple/timer.h **** #define TIMER_CCMR1_OC1PE               BIT(TIMER_CCMR1_OC1PE_BIT)
 395:../Libmaple/libmaple/libmaple/timer.h **** #define TIMER_CCMR1_OC1FE               BIT(TIMER_CCMR1_OC1FE_BIT)
 396:../Libmaple/libmaple/libmaple/timer.h **** #define TIMER_CCMR1_IC1PSC              (0x3 << 2)
 397:../Libmaple/libmaple/libmaple/timer.h **** #define TIMER_CCMR1_CC1S                0x3
 398:../Libmaple/libmaple/libmaple/timer.h **** #define TIMER_CCMR1_CC1S_OUTPUT         TIMER_CCMR_CCS_OUTPUT
 399:../Libmaple/libmaple/libmaple/timer.h **** #define TIMER_CCMR1_CC1S_INPUT_TI1      TIMER_CCMR_CCS_INPUT_TI1
 400:../Libmaple/libmaple/libmaple/timer.h **** #define TIMER_CCMR1_CC1S_INPUT_TI2      TIMER_CCMR_CCS_INPUT_TI2
 401:../Libmaple/libmaple/libmaple/timer.h **** #define TIMER_CCMR1_CC1S_INPUT_TRC      TIMER_CCMR_CCS_INPUT_TRC
 402:../Libmaple/libmaple/libmaple/timer.h **** 
 403:../Libmaple/libmaple/libmaple/timer.h **** /* Capture/compare mode register 2 (CCMR2) */
 404:../Libmaple/libmaple/libmaple/timer.h **** 
 405:../Libmaple/libmaple/libmaple/timer.h **** #define TIMER_CCMR2_OC4CE_BIT           15
 406:../Libmaple/libmaple/libmaple/timer.h **** #define TIMER_CCMR2_OC4PE_BIT           11
 407:../Libmaple/libmaple/libmaple/timer.h **** #define TIMER_CCMR2_OC4FE_BIT           10
 408:../Libmaple/libmaple/libmaple/timer.h **** #define TIMER_CCMR2_OC3CE_BIT           7
 409:../Libmaple/libmaple/libmaple/timer.h **** #define TIMER_CCMR2_OC3PE_BIT           3
 410:../Libmaple/libmaple/libmaple/timer.h **** #define TIMER_CCMR2_OC3FE_BIT           2
 411:../Libmaple/libmaple/libmaple/timer.h **** 
 412:../Libmaple/libmaple/libmaple/timer.h **** #define TIMER_CCMR2_OC4CE               BIT(TIMER_CCMR2_OC4CE_BIT)
 413:../Libmaple/libmaple/libmaple/timer.h **** #define TIMER_CCMR2_OC4M                (0x3 << 12)
 414:../Libmaple/libmaple/libmaple/timer.h **** #define TIMER_CCMR2_IC2F                (0xF << 12)
 415:../Libmaple/libmaple/libmaple/timer.h **** #define TIMER_CCMR2_OC4PE               BIT(TIMER_CCMR2_OC4PE_BIT)
 416:../Libmaple/libmaple/libmaple/timer.h **** #define TIMER_CCMR2_OC4FE               BIT(TIMER_CCMR2_OC4FE_BIT)
 417:../Libmaple/libmaple/libmaple/timer.h **** #define TIMER_CCMR2_IC2PSC              (0x3 << 10)
 418:../Libmaple/libmaple/libmaple/timer.h **** #define TIMER_CCMR2_CC4S                (0x3 << 8)
 419:../Libmaple/libmaple/libmaple/timer.h **** #define TIMER_CCMR1_CC4S_OUTPUT         (TIMER_CCMR_CCS_OUTPUT << 8)
 420:../Libmaple/libmaple/libmaple/timer.h **** #define TIMER_CCMR1_CC4S_INPUT_TI1      (TIMER_CCMR_CCS_INPUT_TI1 << 8)
 421:../Libmaple/libmaple/libmaple/timer.h **** #define TIMER_CCMR1_CC4S_INPUT_TI2      (TIMER_CCMR_CCS_INPUT_TI2 << 8)
 422:../Libmaple/libmaple/libmaple/timer.h **** #define TIMER_CCMR1_CC4S_INPUT_TRC      (TIMER_CCMR_CCS_INPUT_TRC << 8)
 423:../Libmaple/libmaple/libmaple/timer.h **** #define TIMER_CCMR2_OC3CE               BIT(TIMER_CCMR2_OC3CE_BIT)
 424:../Libmaple/libmaple/libmaple/timer.h **** #define TIMER_CCMR2_OC3M                (0x3 << 4)
 425:../Libmaple/libmaple/libmaple/timer.h **** #define TIMER_CCMR2_IC1F                (0xF << 4)
 426:../Libmaple/libmaple/libmaple/timer.h **** #define TIMER_CCMR2_OC3PE               BIT(TIMER_CCMR2_OC3PE_BIT)
 427:../Libmaple/libmaple/libmaple/timer.h **** #define TIMER_CCMR2_OC3FE               BIT(TIMER_CCMR2_OC3FE_BIT)
 428:../Libmaple/libmaple/libmaple/timer.h **** #define TIMER_CCMR2_IC1PSC              (0x3 << 2)
 429:../Libmaple/libmaple/libmaple/timer.h **** #define TIMER_CCMR2_CC3S                0x3
 430:../Libmaple/libmaple/libmaple/timer.h **** #define TIMER_CCMR1_CC3S_OUTPUT         TIMER_CCMR_CCS_OUTPUT
 431:../Libmaple/libmaple/libmaple/timer.h **** #define TIMER_CCMR1_CC3S_INPUT_TI1      TIMER_CCMR_CCS_INPUT_TI1
 432:../Libmaple/libmaple/libmaple/timer.h **** #define TIMER_CCMR1_CC3S_INPUT_TI2      TIMER_CCMR_CCS_INPUT_TI2
 433:../Libmaple/libmaple/libmaple/timer.h **** #define TIMER_CCMR1_CC3S_INPUT_TRC      TIMER_CCMR_CCS_INPUT_TRC
 434:../Libmaple/libmaple/libmaple/timer.h **** 
 435:../Libmaple/libmaple/libmaple/timer.h **** /* Capture/compare enable register (CCER) */
 436:../Libmaple/libmaple/libmaple/timer.h **** 
 437:../Libmaple/libmaple/libmaple/timer.h **** #define TIMER_CCER_CC4P_BIT             13
 438:../Libmaple/libmaple/libmaple/timer.h **** #define TIMER_CCER_CC4E_BIT             12
 439:../Libmaple/libmaple/libmaple/timer.h **** #define TIMER_CCER_CC3P_BIT             9
 440:../Libmaple/libmaple/libmaple/timer.h **** #define TIMER_CCER_CC3E_BIT             8
 441:../Libmaple/libmaple/libmaple/timer.h **** #define TIMER_CCER_CC2P_BIT             5
 442:../Libmaple/libmaple/libmaple/timer.h **** #define TIMER_CCER_CC2E_BIT             4
 443:../Libmaple/libmaple/libmaple/timer.h **** #define TIMER_CCER_CC1P_BIT             1
 444:../Libmaple/libmaple/libmaple/timer.h **** #define TIMER_CCER_CC1E_BIT             0
 445:../Libmaple/libmaple/libmaple/timer.h **** 
 446:../Libmaple/libmaple/libmaple/timer.h **** #define TIMER_CCER_CC4P                 BIT(TIMER_CCER_CC4P_BIT)
 447:../Libmaple/libmaple/libmaple/timer.h **** #define TIMER_CCER_CC4E                 BIT(TIMER_CCER_CC4E_BIT)
 448:../Libmaple/libmaple/libmaple/timer.h **** #define TIMER_CCER_CC3P                 BIT(TIMER_CCER_CC3P_BIT)
 449:../Libmaple/libmaple/libmaple/timer.h **** #define TIMER_CCER_CC3E                 BIT(TIMER_CCER_CC3E_BIT)
 450:../Libmaple/libmaple/libmaple/timer.h **** #define TIMER_CCER_CC2P                 BIT(TIMER_CCER_CC2P_BIT)
 451:../Libmaple/libmaple/libmaple/timer.h **** #define TIMER_CCER_CC2E                 BIT(TIMER_CCER_CC2E_BIT)
 452:../Libmaple/libmaple/libmaple/timer.h **** #define TIMER_CCER_CC1P                 BIT(TIMER_CCER_CC1P_BIT)
 453:../Libmaple/libmaple/libmaple/timer.h **** #define TIMER_CCER_CC1E                 BIT(TIMER_CCER_CC1E_BIT)
 454:../Libmaple/libmaple/libmaple/timer.h **** 
 455:../Libmaple/libmaple/libmaple/timer.h **** /* Break and dead-time register (BDTR) */
 456:../Libmaple/libmaple/libmaple/timer.h **** 
 457:../Libmaple/libmaple/libmaple/timer.h **** #define TIMER_BDTR_MOE_BIT              15
 458:../Libmaple/libmaple/libmaple/timer.h **** #define TIMER_BDTR_AOE_BIT              14
 459:../Libmaple/libmaple/libmaple/timer.h **** #define TIMER_BDTR_BKP_BIT              13
 460:../Libmaple/libmaple/libmaple/timer.h **** #define TIMER_BDTR_BKE_BIT              12
 461:../Libmaple/libmaple/libmaple/timer.h **** #define TIMER_BDTR_OSSR_BIT             11
 462:../Libmaple/libmaple/libmaple/timer.h **** #define TIMER_BDTR_OSSI_BIT             10
 463:../Libmaple/libmaple/libmaple/timer.h **** 
 464:../Libmaple/libmaple/libmaple/timer.h **** #define TIMER_BDTR_MOE                  BIT(TIMER_BDTR_MOE_BIT)
 465:../Libmaple/libmaple/libmaple/timer.h **** #define TIMER_BDTR_AOE                  BIT(TIMER_BDTR_AOE_BIT)
 466:../Libmaple/libmaple/libmaple/timer.h **** #define TIMER_BDTR_BKP                  BIT(TIMER_BDTR_BKP_BIT)
 467:../Libmaple/libmaple/libmaple/timer.h **** #define TIMER_BDTR_BKE                  BIT(TIMER_BDTR_BKE_BIT)
 468:../Libmaple/libmaple/libmaple/timer.h **** #define TIMER_BDTR_OSSR                 BIT(TIMER_BDTR_OSSR_BIT)
 469:../Libmaple/libmaple/libmaple/timer.h **** #define TIMER_BDTR_OSSI                 BIT(TIMER_BDTR_OSSI_BIT)
 470:../Libmaple/libmaple/libmaple/timer.h **** #define TIMER_BDTR_LOCK                 (0x3 << 8)
 471:../Libmaple/libmaple/libmaple/timer.h **** #define TIMER_BDTR_LOCK_OFF             (0x0 << 8)
 472:../Libmaple/libmaple/libmaple/timer.h **** #define TIMER_BDTR_LOCK_LEVEL1          (0x1 << 8)
 473:../Libmaple/libmaple/libmaple/timer.h **** #define TIMER_BDTR_LOCK_LEVEL2          (0x2 << 8)
 474:../Libmaple/libmaple/libmaple/timer.h **** #define TIMER_BDTR_LOCK_LEVEL3          (0x3 << 8)
 475:../Libmaple/libmaple/libmaple/timer.h **** #define TIMER_BDTR_DTG                  0xFF
 476:../Libmaple/libmaple/libmaple/timer.h **** 
 477:../Libmaple/libmaple/libmaple/timer.h **** /* DMA control register (DCR) */
 478:../Libmaple/libmaple/libmaple/timer.h **** 
 479:../Libmaple/libmaple/libmaple/timer.h **** #define TIMER_DCR_DBL                   (0x1F << 8)
 480:../Libmaple/libmaple/libmaple/timer.h **** #define TIMER_DCR_DBL_1BYTE             (0x0 << 8)
 481:../Libmaple/libmaple/libmaple/timer.h **** #define TIMER_DCR_DBL_2BYTE             (0x1 << 8)
 482:../Libmaple/libmaple/libmaple/timer.h **** #define TIMER_DCR_DBL_3BYTE             (0x2 << 8)
 483:../Libmaple/libmaple/libmaple/timer.h **** #define TIMER_DCR_DBL_4BYTE             (0x3 << 8)
 484:../Libmaple/libmaple/libmaple/timer.h **** #define TIMER_DCR_DBL_5BYTE             (0x4 << 8)
 485:../Libmaple/libmaple/libmaple/timer.h **** #define TIMER_DCR_DBL_6BYTE             (0x5 << 8)
 486:../Libmaple/libmaple/libmaple/timer.h **** #define TIMER_DCR_DBL_7BYTE             (0x6 << 8)
 487:../Libmaple/libmaple/libmaple/timer.h **** #define TIMER_DCR_DBL_8BYTE             (0x7 << 8)
 488:../Libmaple/libmaple/libmaple/timer.h **** #define TIMER_DCR_DBL_9BYTE             (0x8 << 8)
 489:../Libmaple/libmaple/libmaple/timer.h **** #define TIMER_DCR_DBL_10BYTE            (0x9 << 8)
 490:../Libmaple/libmaple/libmaple/timer.h **** #define TIMER_DCR_DBL_11BYTE            (0xA << 8)
 491:../Libmaple/libmaple/libmaple/timer.h **** #define TIMER_DCR_DBL_12BYTE            (0xB << 8)
 492:../Libmaple/libmaple/libmaple/timer.h **** #define TIMER_DCR_DBL_13BYTE            (0xC << 8)
 493:../Libmaple/libmaple/libmaple/timer.h **** #define TIMER_DCR_DBL_14BYTE            (0xD << 8)
 494:../Libmaple/libmaple/libmaple/timer.h **** #define TIMER_DCR_DBL_15BYTE            (0xE << 8)
 495:../Libmaple/libmaple/libmaple/timer.h **** #define TIMER_DCR_DBL_16BYTE            (0xF << 8)
 496:../Libmaple/libmaple/libmaple/timer.h **** #define TIMER_DCR_DBL_17BYTE            (0x10 << 8)
 497:../Libmaple/libmaple/libmaple/timer.h **** #define TIMER_DCR_DBL_18BYTE            (0x11 << 8)
 498:../Libmaple/libmaple/libmaple/timer.h **** #define TIMER_DCR_DBA                   0x1F
 499:../Libmaple/libmaple/libmaple/timer.h **** #define TIMER_DCR_DBA_CR1               0x0
 500:../Libmaple/libmaple/libmaple/timer.h **** #define TIMER_DCR_DBA_CR2               0x1
 501:../Libmaple/libmaple/libmaple/timer.h **** #define TIMER_DCR_DBA_SMCR              0x2
 502:../Libmaple/libmaple/libmaple/timer.h **** #define TIMER_DCR_DBA_DIER              0x3
 503:../Libmaple/libmaple/libmaple/timer.h **** #define TIMER_DCR_DBA_SR                0x4
 504:../Libmaple/libmaple/libmaple/timer.h **** #define TIMER_DCR_DBA_EGR               0x5
 505:../Libmaple/libmaple/libmaple/timer.h **** #define TIMER_DCR_DBA_CCMR1             0x6
 506:../Libmaple/libmaple/libmaple/timer.h **** #define TIMER_DCR_DBA_CCMR2             0x7
 507:../Libmaple/libmaple/libmaple/timer.h **** #define TIMER_DCR_DBA_CCER              0x8
 508:../Libmaple/libmaple/libmaple/timer.h **** #define TIMER_DCR_DBA_CNT               0x9
 509:../Libmaple/libmaple/libmaple/timer.h **** #define TIMER_DCR_DBA_PSC               0xA
 510:../Libmaple/libmaple/libmaple/timer.h **** #define TIMER_DCR_DBA_ARR               0xB
 511:../Libmaple/libmaple/libmaple/timer.h **** #define TIMER_DCR_DBA_RCR               0xC
 512:../Libmaple/libmaple/libmaple/timer.h **** #define TIMER_DCR_DBA_CCR1              0xD
 513:../Libmaple/libmaple/libmaple/timer.h **** #define TIMER_DCR_DBA_CCR2              0xE
 514:../Libmaple/libmaple/libmaple/timer.h **** #define TIMER_DCR_DBA_CCR3              0xF
 515:../Libmaple/libmaple/libmaple/timer.h **** #define TIMER_DCR_DBA_CCR4              0x10
 516:../Libmaple/libmaple/libmaple/timer.h **** #define TIMER_DCR_DBA_BDTR              0x11
 517:../Libmaple/libmaple/libmaple/timer.h **** #define TIMER_DCR_DBA_DCR               0x12
 518:../Libmaple/libmaple/libmaple/timer.h **** #define TIMER_DCR_DBA_DMAR              0x13
 519:../Libmaple/libmaple/libmaple/timer.h **** 
 520:../Libmaple/libmaple/libmaple/timer.h **** /*
 521:../Libmaple/libmaple/libmaple/timer.h ****  * Convenience routines
 522:../Libmaple/libmaple/libmaple/timer.h ****  */
 523:../Libmaple/libmaple/libmaple/timer.h **** 
 524:../Libmaple/libmaple/libmaple/timer.h **** /**
 525:../Libmaple/libmaple/libmaple/timer.h ****  * Used to configure the behavior of a timer channel.  Note that not
 526:../Libmaple/libmaple/libmaple/timer.h ****  * all timers can be configured in every mode.
 527:../Libmaple/libmaple/libmaple/timer.h ****  */
 528:../Libmaple/libmaple/libmaple/timer.h **** /* TODO TIMER_PWM_CENTER_ALIGNED, TIMER_INPUT_CAPTURE, TIMER_ONE_PULSE */
 529:../Libmaple/libmaple/libmaple/timer.h **** typedef enum timer_mode {
 530:../Libmaple/libmaple/libmaple/timer.h ****     TIMER_DISABLED, /**< In this mode, the timer stops counting,
 531:../Libmaple/libmaple/libmaple/timer.h ****                          channel interrupts are detached, and no state
 532:../Libmaple/libmaple/libmaple/timer.h ****                          changes are output. */
 533:../Libmaple/libmaple/libmaple/timer.h ****     TIMER_PWM, /**< PWM output mode. This is the default mode for pins
 534:../Libmaple/libmaple/libmaple/timer.h ****                     after initialization. */
 535:../Libmaple/libmaple/libmaple/timer.h ****     /* TIMER_PWM_CENTER_ALIGNED, /\**< Center-aligned PWM output mode. *\/ */
 536:../Libmaple/libmaple/libmaple/timer.h ****     TIMER_OUTPUT_COMPARE, /**< In this mode, the timer counts from 0
 537:../Libmaple/libmaple/libmaple/timer.h ****                                to its reload value repeatedly; every
 538:../Libmaple/libmaple/libmaple/timer.h ****                                time the counter value reaches one of
 539:../Libmaple/libmaple/libmaple/timer.h ****                                the channel compare values, the
 540:../Libmaple/libmaple/libmaple/timer.h ****                                corresponding interrupt is fired. */
 541:../Libmaple/libmaple/libmaple/timer.h ****     /* TIMER_INPUT_CAPTURE, /\**< In this mode, the timer can measure the */
 542:../Libmaple/libmaple/libmaple/timer.h ****     /*                           pulse lengths of input signals. *\/ */
 543:../Libmaple/libmaple/libmaple/timer.h ****     /* TIMER_ONE_PULSE /\**< In this mode, the timer can generate a single */
 544:../Libmaple/libmaple/libmaple/timer.h ****     /*                      pulse on a GPIO pin for a specified amount of */
 545:../Libmaple/libmaple/libmaple/timer.h ****     /*                      time. *\/ */
 546:../Libmaple/libmaple/libmaple/timer.h **** } timer_mode;
 547:../Libmaple/libmaple/libmaple/timer.h **** 
 548:../Libmaple/libmaple/libmaple/timer.h **** /** Timer channel numbers */
 549:../Libmaple/libmaple/libmaple/timer.h **** typedef enum timer_channel {
 550:../Libmaple/libmaple/libmaple/timer.h ****     TIMER_CH1 = 1, /**< Channel 1 */
 551:../Libmaple/libmaple/libmaple/timer.h ****     TIMER_CH2 = 2, /**< Channel 2 */
 552:../Libmaple/libmaple/libmaple/timer.h ****     TIMER_CH3 = 3, /**< Channel 3 */
 553:../Libmaple/libmaple/libmaple/timer.h ****     TIMER_CH4 = 4  /**< Channel 4 */
 554:../Libmaple/libmaple/libmaple/timer.h **** } timer_channel;
 555:../Libmaple/libmaple/libmaple/timer.h **** 
 556:../Libmaple/libmaple/libmaple/timer.h **** /*
 557:../Libmaple/libmaple/libmaple/timer.h ****  * Note: Don't require timer_channel arguments! We want to be able to say
 558:../Libmaple/libmaple/libmaple/timer.h ****  *
 559:../Libmaple/libmaple/libmaple/timer.h ****  * for (int channel = 1; channel <= 4; channel++) {
 560:../Libmaple/libmaple/libmaple/timer.h ****  *    ...
 561:../Libmaple/libmaple/libmaple/timer.h ****  * }
 562:../Libmaple/libmaple/libmaple/timer.h ****  *
 563:../Libmaple/libmaple/libmaple/timer.h ****  * without the compiler yelling at us.
 564:../Libmaple/libmaple/libmaple/timer.h ****  */
 565:../Libmaple/libmaple/libmaple/timer.h **** 
 566:../Libmaple/libmaple/libmaple/timer.h **** void timer_init(timer_dev *dev);
 567:../Libmaple/libmaple/libmaple/timer.h **** void timer_disable(timer_dev *dev);
 568:../Libmaple/libmaple/libmaple/timer.h **** void timer_set_mode(timer_dev *dev, uint8 channel, timer_mode mode);
 569:../Libmaple/libmaple/libmaple/timer.h **** void timer_foreach(void (*fn)(timer_dev*));
 570:../Libmaple/libmaple/libmaple/timer.h **** 
 571:../Libmaple/libmaple/libmaple/timer.h **** /**
 572:../Libmaple/libmaple/libmaple/timer.h ****  * @brief Timer interrupt number.
 573:../Libmaple/libmaple/libmaple/timer.h ****  *
 574:../Libmaple/libmaple/libmaple/timer.h ****  * Not all timers support all of these values; see the descriptions
 575:../Libmaple/libmaple/libmaple/timer.h ****  * for each value.
 576:../Libmaple/libmaple/libmaple/timer.h ****  */
 577:../Libmaple/libmaple/libmaple/timer.h **** typedef enum timer_interrupt_id {
 578:../Libmaple/libmaple/libmaple/timer.h ****     TIMER_UPDATE_INTERRUPT, /**< Update interrupt, available on all timers. */
 579:../Libmaple/libmaple/libmaple/timer.h ****     TIMER_CC1_INTERRUPT, /**< Capture/compare 1 interrupt, available
 580:../Libmaple/libmaple/libmaple/timer.h ****                               on general and advanced timers only. */
 581:../Libmaple/libmaple/libmaple/timer.h ****     TIMER_CC2_INTERRUPT, /**< Capture/compare 2 interrupt, general and
 582:../Libmaple/libmaple/libmaple/timer.h ****                               advanced timers only. */
 583:../Libmaple/libmaple/libmaple/timer.h ****     TIMER_CC3_INTERRUPT, /**< Capture/compare 3 interrupt, general and
 584:../Libmaple/libmaple/libmaple/timer.h ****                               advanced timers only. */
 585:../Libmaple/libmaple/libmaple/timer.h ****     TIMER_CC4_INTERRUPT, /**< Capture/compare 4 interrupt, general and
 586:../Libmaple/libmaple/libmaple/timer.h ****                               advanced timers only. */
 587:../Libmaple/libmaple/libmaple/timer.h ****     TIMER_COM_INTERRUPT, /**< COM interrupt, advanced timers only */
 588:../Libmaple/libmaple/libmaple/timer.h ****     TIMER_TRG_INTERRUPT, /**< Trigger interrupt, general and advanced
 589:../Libmaple/libmaple/libmaple/timer.h ****                               timers only */
 590:../Libmaple/libmaple/libmaple/timer.h ****     TIMER_BREAK_INTERRUPT /**< Break interrupt, advanced timers only. */
 591:../Libmaple/libmaple/libmaple/timer.h **** } timer_interrupt_id;
 592:../Libmaple/libmaple/libmaple/timer.h **** 
 593:../Libmaple/libmaple/libmaple/timer.h **** void timer_attach_interrupt(timer_dev *dev,
 594:../Libmaple/libmaple/libmaple/timer.h ****                             uint8 interrupt,
 595:../Libmaple/libmaple/libmaple/timer.h ****                             voidFuncPtr handler);
 596:../Libmaple/libmaple/libmaple/timer.h **** void timer_detach_interrupt(timer_dev *dev, uint8 interrupt);
 597:../Libmaple/libmaple/libmaple/timer.h **** 
 598:../Libmaple/libmaple/libmaple/timer.h **** /**
 599:../Libmaple/libmaple/libmaple/timer.h ****  * Initialize all timer devices on the chip.
 600:../Libmaple/libmaple/libmaple/timer.h ****  */
 601:../Libmaple/libmaple/libmaple/timer.h **** static inline void timer_init_all(void) {
 602:../Libmaple/libmaple/libmaple/timer.h ****     timer_foreach(timer_init);
 603:../Libmaple/libmaple/libmaple/timer.h **** }
 604:../Libmaple/libmaple/libmaple/timer.h **** 
 605:../Libmaple/libmaple/libmaple/timer.h **** /**
 606:../Libmaple/libmaple/libmaple/timer.h ****  * Disables all timers on the device.
 607:../Libmaple/libmaple/libmaple/timer.h ****  */
 608:../Libmaple/libmaple/libmaple/timer.h **** static inline void timer_disable_all(void) {
 609:../Libmaple/libmaple/libmaple/timer.h ****     timer_foreach(timer_disable);
 610:../Libmaple/libmaple/libmaple/timer.h **** }
 611:../Libmaple/libmaple/libmaple/timer.h **** 
 612:../Libmaple/libmaple/libmaple/timer.h **** /**
 613:../Libmaple/libmaple/libmaple/timer.h ****  * @brief Stop a timer's counter from changing.
 614:../Libmaple/libmaple/libmaple/timer.h ****  *
 615:../Libmaple/libmaple/libmaple/timer.h ****  * Does not affect the timer's mode or other settings.
 616:../Libmaple/libmaple/libmaple/timer.h ****  *
 617:../Libmaple/libmaple/libmaple/timer.h ****  * @param dev Device whose counter to pause.
 618:../Libmaple/libmaple/libmaple/timer.h ****  */
 619:../Libmaple/libmaple/libmaple/timer.h **** static inline void timer_pause(timer_dev *dev) {
 620:../Libmaple/libmaple/libmaple/timer.h ****     *bb_perip(&(dev->regs).bas->CR1, TIMER_CR1_CEN_BIT) = 0;
 621:../Libmaple/libmaple/libmaple/timer.h **** }
 622:../Libmaple/libmaple/libmaple/timer.h **** 
 623:../Libmaple/libmaple/libmaple/timer.h **** /**
 624:../Libmaple/libmaple/libmaple/timer.h ****  * @brief Start a timer's counter.
 625:../Libmaple/libmaple/libmaple/timer.h ****  *
 626:../Libmaple/libmaple/libmaple/timer.h ****  * Does not affect the timer's mode or other settings.
 627:../Libmaple/libmaple/libmaple/timer.h ****  *
 628:../Libmaple/libmaple/libmaple/timer.h ****  * @param dev Device whose counter to resume
 629:../Libmaple/libmaple/libmaple/timer.h ****  */
 630:../Libmaple/libmaple/libmaple/timer.h **** static inline void timer_resume(timer_dev *dev) {
 631:../Libmaple/libmaple/libmaple/timer.h ****     *bb_perip(&(dev->regs).bas->CR1, TIMER_CR1_CEN_BIT) = 1;
 632:../Libmaple/libmaple/libmaple/timer.h **** }
 633:../Libmaple/libmaple/libmaple/timer.h **** 
 634:../Libmaple/libmaple/libmaple/timer.h **** /**
 635:../Libmaple/libmaple/libmaple/timer.h ****  * @brief Returns the timer's counter value.
 636:../Libmaple/libmaple/libmaple/timer.h ****  *
 637:../Libmaple/libmaple/libmaple/timer.h ****  * This value is likely to be inaccurate if the counter is running
 638:../Libmaple/libmaple/libmaple/timer.h ****  * with a low prescaler.
 639:../Libmaple/libmaple/libmaple/timer.h ****  *
 640:../Libmaple/libmaple/libmaple/timer.h ****  * @param dev Timer whose counter to return
 641:../Libmaple/libmaple/libmaple/timer.h ****  */
 642:../Libmaple/libmaple/libmaple/timer.h **** static inline uint16 timer_get_count(timer_dev *dev) {
 643:../Libmaple/libmaple/libmaple/timer.h ****     return (uint16)(dev->regs).bas->CNT;
 644:../Libmaple/libmaple/libmaple/timer.h **** }
 645:../Libmaple/libmaple/libmaple/timer.h **** 
 646:../Libmaple/libmaple/libmaple/timer.h **** /**
 647:../Libmaple/libmaple/libmaple/timer.h ****  * @brief Sets the counter value for the given timer.
 648:../Libmaple/libmaple/libmaple/timer.h ****  * @param dev Timer whose counter to set
 649:../Libmaple/libmaple/libmaple/timer.h ****  * @param value New counter value
 650:../Libmaple/libmaple/libmaple/timer.h ****  */
 651:../Libmaple/libmaple/libmaple/timer.h **** static inline void timer_set_count(timer_dev *dev, uint16 value) {
 652:../Libmaple/libmaple/libmaple/timer.h ****     (dev->regs).bas->CNT = value;
 653:../Libmaple/libmaple/libmaple/timer.h **** }
 654:../Libmaple/libmaple/libmaple/timer.h **** 
 655:../Libmaple/libmaple/libmaple/timer.h **** /**
 656:../Libmaple/libmaple/libmaple/timer.h ****  * @brief Returns the given timer's prescaler.
 657:../Libmaple/libmaple/libmaple/timer.h ****  *
 658:../Libmaple/libmaple/libmaple/timer.h ****  * Note that if the timer's prescaler is set (e.g. via
 659:../Libmaple/libmaple/libmaple/timer.h ****  * timer_set_prescaler() or accessing a TIMx_PSC register), the value
 660:../Libmaple/libmaple/libmaple/timer.h ****  * returned by this function will reflect the new setting, but the
 661:../Libmaple/libmaple/libmaple/timer.h ****  * timer's counter will only reflect the new prescaler at the next
 662:../Libmaple/libmaple/libmaple/timer.h ****  * update event.
 663:../Libmaple/libmaple/libmaple/timer.h ****  *
 664:../Libmaple/libmaple/libmaple/timer.h ****  * @param dev Timer whose prescaler to return
 665:../Libmaple/libmaple/libmaple/timer.h ****  * @see timer_generate_update()
 666:../Libmaple/libmaple/libmaple/timer.h ****  */
 667:../Libmaple/libmaple/libmaple/timer.h **** static inline uint16 timer_get_prescaler(timer_dev *dev) {
 668:../Libmaple/libmaple/libmaple/timer.h ****     return (uint16)(dev->regs).bas->PSC;
 669:../Libmaple/libmaple/libmaple/timer.h **** }
 670:../Libmaple/libmaple/libmaple/timer.h **** 
 671:../Libmaple/libmaple/libmaple/timer.h **** /**
 672:../Libmaple/libmaple/libmaple/timer.h ****  * @brief Set a timer's prescale value.
 673:../Libmaple/libmaple/libmaple/timer.h ****  *
 674:../Libmaple/libmaple/libmaple/timer.h ****  * Divides the input clock by (PSC+1).  The new value will not take
 675:../Libmaple/libmaple/libmaple/timer.h ****  * effect until the next update event.
 676:../Libmaple/libmaple/libmaple/timer.h ****  *
 677:../Libmaple/libmaple/libmaple/timer.h ****  * @param dev Timer whose prescaler to set
 678:../Libmaple/libmaple/libmaple/timer.h ****  * @param psc New prescaler value
 679:../Libmaple/libmaple/libmaple/timer.h ****  * @see timer_generate_update()
 680:../Libmaple/libmaple/libmaple/timer.h ****  */
 681:../Libmaple/libmaple/libmaple/timer.h **** static inline void timer_set_prescaler(timer_dev *dev, uint16 psc) {
 682:../Libmaple/libmaple/libmaple/timer.h ****     (dev->regs).bas->PSC = psc;
 683:../Libmaple/libmaple/libmaple/timer.h **** }
 684:../Libmaple/libmaple/libmaple/timer.h **** 
 685:../Libmaple/libmaple/libmaple/timer.h **** /**
 686:../Libmaple/libmaple/libmaple/timer.h ****  * @brief Returns a timer's reload value.
 687:../Libmaple/libmaple/libmaple/timer.h ****  * @param dev Timer whose reload value to return
 688:../Libmaple/libmaple/libmaple/timer.h ****  */
 689:../Libmaple/libmaple/libmaple/timer.h **** static inline uint16 timer_get_reload(timer_dev *dev) {
 690:../Libmaple/libmaple/libmaple/timer.h ****     return (uint16)(dev->regs).bas->ARR;
 691:../Libmaple/libmaple/libmaple/timer.h **** }
 692:../Libmaple/libmaple/libmaple/timer.h **** 
 693:../Libmaple/libmaple/libmaple/timer.h **** /**
 694:../Libmaple/libmaple/libmaple/timer.h ****  * @brief Set a timer's reload value.
 695:../Libmaple/libmaple/libmaple/timer.h ****  * @param dev Timer whose reload value to set
 696:../Libmaple/libmaple/libmaple/timer.h ****  * @param arr New reload value to use.  Takes effect at next update event.
 697:../Libmaple/libmaple/libmaple/timer.h ****  * @see timer_generate_update()
 698:../Libmaple/libmaple/libmaple/timer.h ****  */
 699:../Libmaple/libmaple/libmaple/timer.h **** static inline void timer_set_reload(timer_dev *dev, uint16 arr) {
 700:../Libmaple/libmaple/libmaple/timer.h ****     (dev->regs).bas->ARR = arr;
 701:../Libmaple/libmaple/libmaple/timer.h **** }
 702:../Libmaple/libmaple/libmaple/timer.h **** 
 703:../Libmaple/libmaple/libmaple/timer.h **** /**
 704:../Libmaple/libmaple/libmaple/timer.h ****  * @brief Get the compare value for the given timer channel.
 705:../Libmaple/libmaple/libmaple/timer.h ****  * @param dev Timer device, must have type TIMER_ADVANCED or TIMER_GENERAL.
 706:../Libmaple/libmaple/libmaple/timer.h ****  * @param channel Channel whose compare value to get.
 707:../Libmaple/libmaple/libmaple/timer.h ****  */
 708:../Libmaple/libmaple/libmaple/timer.h **** static inline uint16 timer_get_compare(timer_dev *dev, uint8 channel) {
 709:../Libmaple/libmaple/libmaple/timer.h ****     __io uint32 *ccr = &(dev->regs).gen->CCR1 + (channel - 1);
 710:../Libmaple/libmaple/libmaple/timer.h ****     return *ccr;
 711:../Libmaple/libmaple/libmaple/timer.h **** }
 712:../Libmaple/libmaple/libmaple/timer.h **** 
 713:../Libmaple/libmaple/libmaple/timer.h **** /**
 714:../Libmaple/libmaple/libmaple/timer.h ****  * @brief Set the compare value for the given timer channel.
 715:../Libmaple/libmaple/libmaple/timer.h ****  * @param dev Timer device, must have type TIMER_ADVANCED or TIMER_GENERAL.
 716:../Libmaple/libmaple/libmaple/timer.h ****  * @param channel Channel whose compare value to set.
 717:../Libmaple/libmaple/libmaple/timer.h ****  * @param value   New compare value.
 718:../Libmaple/libmaple/libmaple/timer.h ****  */
 719:../Libmaple/libmaple/libmaple/timer.h **** static inline void timer_set_compare(timer_dev *dev,
 720:../Libmaple/libmaple/libmaple/timer.h ****                                      uint8 channel,
 721:../Libmaple/libmaple/libmaple/timer.h ****                                      uint16 value) {
  27              		.loc 1 721 0
  28              		.cfi_startproc
  29              		@ args = 0, pretend = 0, frame = 0
  30              		@ frame_needed = 0, uses_anonymous_args = 0
  31              		@ link register save eliminated.
  32              	.LVL0:
  33              	.LBB2:
 722:../Libmaple/libmaple/libmaple/timer.h ****     __io uint32 *ccr = &(dev->regs).gen->CCR1 + (channel - 1);
  34              		.loc 1 722 0
  35 0000 0368     		ldr	r3, [r0, #0]
  36 0002 0139     		subs	r1, r1, #1
  37              	.LVL1:
  38 0004 3433     		adds	r3, r3, #52
  39              	.LVL2:
 723:../Libmaple/libmaple/libmaple/timer.h ****     *ccr = value;
  40              		.loc 1 723 0
  41 0006 43F82120 		str	r2, [r3, r1, lsl #2]
  42              	.LBE2:
 724:../Libmaple/libmaple/libmaple/timer.h **** }
  43              		.loc 1 724 0
  44 000a 7047     		bx	lr
  45              		.cfi_endproc
  46              	.LFE30:
  48              		.section	.text._ZL6millisv,"ax",%progbits
  49              		.align	1
  50              		.thumb
  51              		.thumb_func
  53              	_ZL6millisv:
  54              	.LFB55:
  55              		.file 2 "../Libmaple/libmaple/wirish/wirish_time.h"
   1:../Libmaple/libmaple/wirish/wirish_time.h **** /******************************************************************************
   2:../Libmaple/libmaple/wirish/wirish_time.h ****  * The MIT License
   3:../Libmaple/libmaple/wirish/wirish_time.h ****  *
   4:../Libmaple/libmaple/wirish/wirish_time.h ****  * Copyright (c) 2010 Perry Hung.
   5:../Libmaple/libmaple/wirish/wirish_time.h ****  *
   6:../Libmaple/libmaple/wirish/wirish_time.h ****  * Permission is hereby granted, free of charge, to any person
   7:../Libmaple/libmaple/wirish/wirish_time.h ****  * obtaining a copy of this software and associated documentation
   8:../Libmaple/libmaple/wirish/wirish_time.h ****  * files (the "Software"), to deal in the Software without
   9:../Libmaple/libmaple/wirish/wirish_time.h ****  * restriction, including without limitation the rights to use, copy,
  10:../Libmaple/libmaple/wirish/wirish_time.h ****  * modify, merge, publish, distribute, sublicense, and/or sell copies
  11:../Libmaple/libmaple/wirish/wirish_time.h ****  * of the Software, and to permit persons to whom the Software is
  12:../Libmaple/libmaple/wirish/wirish_time.h ****  * furnished to do so, subject to the following conditions:
  13:../Libmaple/libmaple/wirish/wirish_time.h ****  *
  14:../Libmaple/libmaple/wirish/wirish_time.h ****  * The above copyright notice and this permission notice shall be
  15:../Libmaple/libmaple/wirish/wirish_time.h ****  * included in all copies or substantial portions of the Software.
  16:../Libmaple/libmaple/wirish/wirish_time.h ****  *
  17:../Libmaple/libmaple/wirish/wirish_time.h ****  * THE SOFTWARE IS PROVIDED "AS IS", WITHOUT WARRANTY OF ANY KIND,
  18:../Libmaple/libmaple/wirish/wirish_time.h ****  * EXPRESS OR IMPLIED, INCLUDING BUT NOT LIMITED TO THE WARRANTIES OF
  19:../Libmaple/libmaple/wirish/wirish_time.h ****  * MERCHANTABILITY, FITNESS FOR A PARTICULAR PURPOSE AND
  20:../Libmaple/libmaple/wirish/wirish_time.h ****  * NONINFRINGEMENT. IN NO EVENT SHALL THE AUTHORS OR COPYRIGHT HOLDERS
  21:../Libmaple/libmaple/wirish/wirish_time.h ****  * BE LIABLE FOR ANY CLAIM, DAMAGES OR OTHER LIABILITY, WHETHER IN AN
  22:../Libmaple/libmaple/wirish/wirish_time.h ****  * ACTION OF CONTRACT, TORT OR OTHERWISE, ARISING FROM, OUT OF OR IN
  23:../Libmaple/libmaple/wirish/wirish_time.h ****  * CONNECTION WITH THE SOFTWARE OR THE USE OR OTHER DEALINGS IN THE
  24:../Libmaple/libmaple/wirish/wirish_time.h ****  * SOFTWARE.
  25:../Libmaple/libmaple/wirish/wirish_time.h ****  *****************************************************************************/
  26:../Libmaple/libmaple/wirish/wirish_time.h **** 
  27:../Libmaple/libmaple/wirish/wirish_time.h **** /**
  28:../Libmaple/libmaple/wirish/wirish_time.h ****  * @file wirish_time.h
  29:../Libmaple/libmaple/wirish/wirish_time.h ****  * @brief Timing and delay functions.
  30:../Libmaple/libmaple/wirish/wirish_time.h ****  */
  31:../Libmaple/libmaple/wirish/wirish_time.h **** 
  32:../Libmaple/libmaple/wirish/wirish_time.h **** #ifndef __WIRISH_TIME_H_
  33:../Libmaple/libmaple/wirish/wirish_time.h **** #define __WIRISH_TIME_H_
  34:../Libmaple/libmaple/wirish/wirish_time.h **** 
  35:../Libmaple/libmaple/wirish/wirish_time.h **** #include "libmaple.h"
  36:../Libmaple/libmaple/wirish/wirish_time.h **** #include "nvic.h"
  37:../Libmaple/libmaple/wirish/wirish_time.h **** #include "systick.h"
  38:../Libmaple/libmaple/wirish/wirish_time.h **** #include "boards.h"
  39:../Libmaple/libmaple/wirish/wirish_time.h **** 
  40:../Libmaple/libmaple/wirish/wirish_time.h **** #define US_PER_MS               1000
  41:../Libmaple/libmaple/wirish/wirish_time.h **** 
  42:../Libmaple/libmaple/wirish/wirish_time.h **** /**
  43:../Libmaple/libmaple/wirish/wirish_time.h ****  * Returns time (in milliseconds) since the beginning of program
  44:../Libmaple/libmaple/wirish/wirish_time.h ****  * execution. On overflow, restarts at 0.
  45:../Libmaple/libmaple/wirish/wirish_time.h ****  * @see micros()
  46:../Libmaple/libmaple/wirish/wirish_time.h ****  */
  47:../Libmaple/libmaple/wirish/wirish_time.h **** static inline uint32 millis(void) {
  56              		.loc 2 47 0
  57              		.cfi_startproc
  58              		@ args = 0, pretend = 0, frame = 0
  59              		@ frame_needed = 0, uses_anonymous_args = 0
  60              		@ link register save eliminated.
  61              	.LBB5:
  62              	.LBB6:
  63              		.file 3 "../Libmaple/libmaple/libmaple/systick.h"
   1:../Libmaple/libmaple/libmaple/systick.h **** /******************************************************************************
   2:../Libmaple/libmaple/libmaple/systick.h ****  * The MIT License
   3:../Libmaple/libmaple/libmaple/systick.h ****  *
   4:../Libmaple/libmaple/libmaple/systick.h ****  * Copyright (c) 2010 Perry Hung.
   5:../Libmaple/libmaple/libmaple/systick.h ****  *
   6:../Libmaple/libmaple/libmaple/systick.h ****  * Permission is hereby granted, free of charge, to any person
   7:../Libmaple/libmaple/libmaple/systick.h ****  * obtaining a copy of this software and associated documentation
   8:../Libmaple/libmaple/libmaple/systick.h ****  * files (the "Software"), to deal in the Software without
   9:../Libmaple/libmaple/libmaple/systick.h ****  * restriction, including without limitation the rights to use, copy,
  10:../Libmaple/libmaple/libmaple/systick.h ****  * modify, merge, publish, distribute, sublicense, and/or sell copies
  11:../Libmaple/libmaple/libmaple/systick.h ****  * of the Software, and to permit persons to whom the Software is
  12:../Libmaple/libmaple/libmaple/systick.h ****  * furnished to do so, subject to the following conditions:
  13:../Libmaple/libmaple/libmaple/systick.h ****  *
  14:../Libmaple/libmaple/libmaple/systick.h ****  * The above copyright notice and this permission notice shall be
  15:../Libmaple/libmaple/libmaple/systick.h ****  * included in all copies or substantial portions of the Software.
  16:../Libmaple/libmaple/libmaple/systick.h ****  *
  17:../Libmaple/libmaple/libmaple/systick.h ****  * THE SOFTWARE IS PROVIDED "AS IS", WITHOUT WARRANTY OF ANY KIND,
  18:../Libmaple/libmaple/libmaple/systick.h ****  * EXPRESS OR IMPLIED, INCLUDING BUT NOT LIMITED TO THE WARRANTIES OF
  19:../Libmaple/libmaple/libmaple/systick.h ****  * MERCHANTABILITY, FITNESS FOR A PARTICULAR PURPOSE AND
  20:../Libmaple/libmaple/libmaple/systick.h ****  * NONINFRINGEMENT. IN NO EVENT SHALL THE AUTHORS OR COPYRIGHT HOLDERS
  21:../Libmaple/libmaple/libmaple/systick.h ****  * BE LIABLE FOR ANY CLAIM, DAMAGES OR OTHER LIABILITY, WHETHER IN AN
  22:../Libmaple/libmaple/libmaple/systick.h ****  * ACTION OF CONTRACT, TORT OR OTHERWISE, ARISING FROM, OUT OF OR IN
  23:../Libmaple/libmaple/libmaple/systick.h ****  * CONNECTION WITH THE SOFTWARE OR THE USE OR OTHER DEALINGS IN THE
  24:../Libmaple/libmaple/libmaple/systick.h ****  * SOFTWARE.
  25:../Libmaple/libmaple/libmaple/systick.h ****  *****************************************************************************/
  26:../Libmaple/libmaple/libmaple/systick.h **** 
  27:../Libmaple/libmaple/libmaple/systick.h **** /**
  28:../Libmaple/libmaple/libmaple/systick.h ****  * @file systick.h
  29:../Libmaple/libmaple/libmaple/systick.h ****  *
  30:../Libmaple/libmaple/libmaple/systick.h ****  * @brief Various system timer definitions
  31:../Libmaple/libmaple/libmaple/systick.h ****  */
  32:../Libmaple/libmaple/libmaple/systick.h **** 
  33:../Libmaple/libmaple/libmaple/systick.h **** #ifndef _SYSTICK_H_
  34:../Libmaple/libmaple/libmaple/systick.h **** #define _SYSTICK_H_
  35:../Libmaple/libmaple/libmaple/systick.h **** 
  36:../Libmaple/libmaple/libmaple/systick.h **** #include "libmaple_types.h"
  37:../Libmaple/libmaple/libmaple/systick.h **** #include "util.h"
  38:../Libmaple/libmaple/libmaple/systick.h **** 
  39:../Libmaple/libmaple/libmaple/systick.h **** #ifdef __cplusplus
  40:../Libmaple/libmaple/libmaple/systick.h **** extern "C"{
  41:../Libmaple/libmaple/libmaple/systick.h **** #endif
  42:../Libmaple/libmaple/libmaple/systick.h **** 
  43:../Libmaple/libmaple/libmaple/systick.h **** /** SysTick register map type */
  44:../Libmaple/libmaple/libmaple/systick.h **** typedef struct systick_reg_map {
  45:../Libmaple/libmaple/libmaple/systick.h ****     __io uint32 CSR;            /**< Control and status register */
  46:../Libmaple/libmaple/libmaple/systick.h ****     __io uint32 RVR;            /**< Reload value register */
  47:../Libmaple/libmaple/libmaple/systick.h ****     __io uint32 CNT;            /**< Current value register ("count") */
  48:../Libmaple/libmaple/libmaple/systick.h ****     __io uint32 CVR;            /**< Calibration value register */
  49:../Libmaple/libmaple/libmaple/systick.h **** } systick_reg_map;
  50:../Libmaple/libmaple/libmaple/systick.h **** 
  51:../Libmaple/libmaple/libmaple/systick.h **** /** SysTick register map base pointer */
  52:../Libmaple/libmaple/libmaple/systick.h **** #define SYSTICK_BASE                    ((struct systick_reg_map*)0xE000E010)
  53:../Libmaple/libmaple/libmaple/systick.h **** 
  54:../Libmaple/libmaple/libmaple/systick.h **** /*
  55:../Libmaple/libmaple/libmaple/systick.h ****  * Register bit definitions.
  56:../Libmaple/libmaple/libmaple/systick.h ****  */
  57:../Libmaple/libmaple/libmaple/systick.h **** 
  58:../Libmaple/libmaple/libmaple/systick.h **** /* Control and status register */
  59:../Libmaple/libmaple/libmaple/systick.h **** 
  60:../Libmaple/libmaple/libmaple/systick.h **** #define SYSTICK_CSR_COUNTFLAG           BIT(16)
  61:../Libmaple/libmaple/libmaple/systick.h **** #define SYSTICK_CSR_CLKSOURCE           BIT(2)
  62:../Libmaple/libmaple/libmaple/systick.h **** #define SYSTICK_CSR_CLKSOURCE_EXTERNAL  0
  63:../Libmaple/libmaple/libmaple/systick.h **** #define SYSTICK_CSR_CLKSOURCE_CORE      BIT(2)
  64:../Libmaple/libmaple/libmaple/systick.h **** #define SYSTICK_CSR_TICKINT             BIT(1)
  65:../Libmaple/libmaple/libmaple/systick.h **** #define SYSTICK_CSR_TICKINT_PEND        BIT(1)
  66:../Libmaple/libmaple/libmaple/systick.h **** #define SYSTICK_CSR_TICKINT_NO_PEND     0
  67:../Libmaple/libmaple/libmaple/systick.h **** #define SYSTICK_CSR_ENABLE              BIT(0)
  68:../Libmaple/libmaple/libmaple/systick.h **** #define SYSTICK_CSR_ENABLE_MULTISHOT    BIT(0)
  69:../Libmaple/libmaple/libmaple/systick.h **** #define SYSTICK_CSR_ENABLE_DISABLED     0
  70:../Libmaple/libmaple/libmaple/systick.h **** 
  71:../Libmaple/libmaple/libmaple/systick.h **** /* Calibration value register */
  72:../Libmaple/libmaple/libmaple/systick.h **** 
  73:../Libmaple/libmaple/libmaple/systick.h **** #define SYSTICK_CVR_NOREF               BIT(31)
  74:../Libmaple/libmaple/libmaple/systick.h **** #define SYSTICK_CVR_SKEW                BIT(30)
  75:../Libmaple/libmaple/libmaple/systick.h **** #define SYSTICK_CVR_TENMS               0xFFFFFF
  76:../Libmaple/libmaple/libmaple/systick.h **** 
  77:../Libmaple/libmaple/libmaple/systick.h **** /** System elapsed time, in milliseconds */
  78:../Libmaple/libmaple/libmaple/systick.h **** extern volatile uint32 systick_uptime_millis;
  79:../Libmaple/libmaple/libmaple/systick.h **** 
  80:../Libmaple/libmaple/libmaple/systick.h **** /**
  81:../Libmaple/libmaple/libmaple/systick.h ****  * @brief Returns the system uptime, in milliseconds.
  82:../Libmaple/libmaple/libmaple/systick.h ****  */
  83:../Libmaple/libmaple/libmaple/systick.h **** static inline uint32 systick_uptime(void) {
  84:../Libmaple/libmaple/libmaple/systick.h ****     return systick_uptime_millis;
  64              		.loc 3 84 0
  65 0000 014B     		ldr	r3, .L3
  66 0002 1868     		ldr	r0, [r3, #0]
  67              	.LBE6:
  68              	.LBE5:
  48:../Libmaple/libmaple/wirish/wirish_time.h ****     return systick_uptime();
  49:../Libmaple/libmaple/wirish/wirish_time.h **** }
  69              		.loc 2 49 0
  70 0004 7047     		bx	lr
  71              	.L4:
  72 0006 00BF     		.align	2
  73              	.L3:
  74 0008 00000000 		.word	systick_uptime_millis
  75              		.cfi_endproc
  76              	.LFE55:
  78              		.section	.text._ZL6microsv,"ax",%progbits
  79              		.align	1
  80              		.thumb
  81              		.thumb_func
  83              	_ZL6microsv:
  84              	.LFB56:
  50:../Libmaple/libmaple/wirish/wirish_time.h **** 
  51:../Libmaple/libmaple/wirish/wirish_time.h **** /**
  52:../Libmaple/libmaple/wirish/wirish_time.h ****  * Returns time (in microseconds) since the beginning of program
  53:../Libmaple/libmaple/wirish/wirish_time.h ****  * execution.  On overflow, restarts at 0.
  54:../Libmaple/libmaple/wirish/wirish_time.h ****  * @see millis()
  55:../Libmaple/libmaple/wirish/wirish_time.h ****  */
  56:../Libmaple/libmaple/wirish/wirish_time.h **** static inline uint32 micros(void) {
  85              		.loc 2 56 0
  86              		.cfi_startproc
  87              		@ args = 0, pretend = 0, frame = 0
  88              		@ frame_needed = 0, uses_anonymous_args = 0
  89 0000 38B5     		push	{r3, r4, r5, lr}
  90              	.LCFI0:
  91              		.cfi_def_cfa_offset 16
  92              		.cfi_offset 14, -4
  93              		.cfi_offset 5, -8
  94              		.cfi_offset 4, -12
  95              		.cfi_offset 3, -16
  96              	.L6:
  97              	.LBB10:
  57:../Libmaple/libmaple/wirish/wirish_time.h ****     uint32 ms;
  58:../Libmaple/libmaple/wirish/wirish_time.h ****     uint32 cycle_cnt;
  59:../Libmaple/libmaple/wirish/wirish_time.h ****     uint32 res;
  60:../Libmaple/libmaple/wirish/wirish_time.h **** 
  61:../Libmaple/libmaple/wirish/wirish_time.h ****     do {
  62:../Libmaple/libmaple/wirish/wirish_time.h ****         ms = millis();
  98              		.loc 2 62 0 discriminator 1
  99 0002 FFF7FEFF 		bl	_ZL6millisv
 100              	.LBB11:
 101              	.LBB12:
  85:../Libmaple/libmaple/libmaple/systick.h **** }
  86:../Libmaple/libmaple/libmaple/systick.h **** 
  87:../Libmaple/libmaple/libmaple/systick.h **** 
  88:../Libmaple/libmaple/libmaple/systick.h **** void systick_init(uint32 reload_val);
  89:../Libmaple/libmaple/libmaple/systick.h **** void systick_disable();
  90:../Libmaple/libmaple/libmaple/systick.h **** void systick_enable();
  91:../Libmaple/libmaple/libmaple/systick.h **** 
  92:../Libmaple/libmaple/libmaple/systick.h **** /**
  93:../Libmaple/libmaple/libmaple/systick.h ****  * @brief Returns the current value of the SysTick counter.
  94:../Libmaple/libmaple/libmaple/systick.h ****  */
  95:../Libmaple/libmaple/libmaple/systick.h **** static inline uint32 systick_get_count(void) {
  96:../Libmaple/libmaple/libmaple/systick.h ****     return SYSTICK_BASE->CNT;
 102              		.loc 3 96 0 discriminator 1
 103 0006 094B     		ldr	r3, .L8
 104              	.LBE12:
 105              	.LBE11:
 106              		.loc 2 62 0 discriminator 1
 107 0008 0446     		mov	r4, r0
 108              	.LVL3:
 109              	.LBB14:
 110              	.LBB13:
 111              		.loc 3 96 0 discriminator 1
 112 000a 9D68     		ldr	r5, [r3, #8]
 113              	.LBE13:
 114              	.LBE14:
  63:../Libmaple/libmaple/wirish/wirish_time.h ****         cycle_cnt = systick_get_count();
  64:../Libmaple/libmaple/wirish/wirish_time.h ****     } while (ms != millis());
 115              		.loc 2 64 0 discriminator 1
 116 000c FFF7FEFF 		bl	_ZL6millisv
 117              	.LVL4:
  61:../Libmaple/libmaple/wirish/wirish_time.h ****     do {
 118              		.loc 2 61 0 discriminator 1
 119 0010 8442     		cmp	r4, r0
 120 0012 F6D1     		bne	.L6
 121              	.LVL5:
  65:../Libmaple/libmaple/wirish/wirish_time.h **** 
  66:../Libmaple/libmaple/wirish/wirish_time.h ****     /* SYSTICK_RELOAD_VAL is 1 less than the number of cycles it
  67:../Libmaple/libmaple/wirish/wirish_time.h ****        actually takes to complete a SysTick reload */
  68:../Libmaple/libmaple/wirish/wirish_time.h ****     res = (ms * US_PER_MS) +
  69:../Libmaple/libmaple/wirish/wirish_time.h ****         (SYSTICK_RELOAD_VAL + 1 - cycle_cnt) / CYCLES_PER_MICROSECOND;
 122              		.loc 2 69 0
 123 0014 C5F52435 		rsb	r5, r5, #167936
 124              	.LVL6:
 125 0018 4035     		adds	r5, r5, #64
 126 001a A821     		movs	r1, #168
 127 001c B5FBF1F5 		udiv	r5, r5, r1
 128              	.LBE10:
  70:../Libmaple/libmaple/wirish/wirish_time.h **** 
  71:../Libmaple/libmaple/wirish/wirish_time.h ****     return res;
  72:../Libmaple/libmaple/wirish/wirish_time.h **** }
 129              		.loc 2 72 0
 130 0020 4FF47A70 		mov	r0, #1000
 131 0024 00FB0450 		mla	r0, r0, r4, r5
 132 0028 38BD     		pop	{r3, r4, r5, pc}
 133              	.L9:
 134 002a 00BF     		.align	2
 135              	.L8:
 136 002c 10E000E0 		.word	-536813552
 137              		.cfi_endproc
 138              	.LFE56:
 140              		.section	.text._Z9FrqChangev,"ax",%progbits
 141              		.align	1
 142              		.global	_Z9FrqChangev
 143              		.thumb
 144              		.thumb_func
 146              	_Z9FrqChangev:
 147              	.LFB172:
 148              		.file 4 "../Libraries/AQ_Receiver/Receiver_STM32PPM.h"
   1:../Libraries/AQ_Receiver/Receiver_STM32PPM.h **** /*
   2:../Libraries/AQ_Receiver/Receiver_STM32PPM.h ****   Copyright (c) 2012 kha.  All rights reserved.
   3:../Libraries/AQ_Receiver/Receiver_STM32PPM.h **** 
   4:../Libraries/AQ_Receiver/Receiver_STM32PPM.h ****   STM32 PPM receiver by kha based on 
   5:../Libraries/AQ_Receiver/Receiver_STM32PPM.h ****   STM32 receiver class by ala42 using time input capture
   6:../Libraries/AQ_Receiver/Receiver_STM32PPM.h ****   for use with AeroQuad software and Maple library
   7:../Libraries/AQ_Receiver/Receiver_STM32PPM.h ****   V 1.0 Jun 14 2012
   8:../Libraries/AQ_Receiver/Receiver_STM32PPM.h **** 
   9:../Libraries/AQ_Receiver/Receiver_STM32PPM.h ****   Define the pin numbers used for the receiver in receiverPin[]
  10:../Libraries/AQ_Receiver/Receiver_STM32PPM.h **** 
  11:../Libraries/AQ_Receiver/Receiver_STM32PPM.h ****   Timer and timer channels are accessed using the Maple PIN_MAP array.
  12:../Libraries/AQ_Receiver/Receiver_STM32PPM.h ****   Make sure libmaple and this receiver class are compiled using the
  13:../Libraries/AQ_Receiver/Receiver_STM32PPM.h ****   same structure alignment mode. When in doubt, change the stm32_pin_info
  14:../Libraries/AQ_Receiver/Receiver_STM32PPM.h ****   declaration in wirish_types.h to align the size to a multiple of 4 byte
  15:../Libraries/AQ_Receiver/Receiver_STM32PPM.h ****   by adding a filler byte at the end of the structure declaration.
  16:../Libraries/AQ_Receiver/Receiver_STM32PPM.h **** */
  17:../Libraries/AQ_Receiver/Receiver_STM32PPM.h **** 
  18:../Libraries/AQ_Receiver/Receiver_STM32PPM.h **** #ifndef _AEROQUAD_RECEIVER_STM32PPM_H_
  19:../Libraries/AQ_Receiver/Receiver_STM32PPM.h **** #define _AEROQUAD_RECEIVER_STM32PPM_H_
  20:../Libraries/AQ_Receiver/Receiver_STM32PPM.h **** 
  21:../Libraries/AQ_Receiver/Receiver_STM32PPM.h **** #if defined(AeroQuadSTM32)
  22:../Libraries/AQ_Receiver/Receiver_STM32PPM.h **** 
  23:../Libraries/AQ_Receiver/Receiver_STM32PPM.h **** #include "Receiver.h"
  24:../Libraries/AQ_Receiver/Receiver_STM32PPM.h **** #include "wirish.h"
  25:../Libraries/AQ_Receiver/Receiver_STM32PPM.h **** 
  26:../Libraries/AQ_Receiver/Receiver_STM32PPM.h **** //#define STM32_TIMER_DEBUG // enable debug messages
  27:../Libraries/AQ_Receiver/Receiver_STM32PPM.h **** 
  28:../Libraries/AQ_Receiver/Receiver_STM32PPM.h **** ///////////////////////////////////////////////////////////////////////////////
  29:../Libraries/AQ_Receiver/Receiver_STM32PPM.h **** // configuration part starts here
  30:../Libraries/AQ_Receiver/Receiver_STM32PPM.h **** // definition of pins used for PWM receiver input
  31:../Libraries/AQ_Receiver/Receiver_STM32PPM.h **** 
  32:../Libraries/AQ_Receiver/Receiver_STM32PPM.h **** #ifdef BOARD_aeroquad32
  33:../Libraries/AQ_Receiver/Receiver_STM32PPM.h **** static byte receiverPin = Port2Pin('D', 15);
  34:../Libraries/AQ_Receiver/Receiver_STM32PPM.h **** #endif
  35:../Libraries/AQ_Receiver/Receiver_STM32PPM.h **** 
  36:../Libraries/AQ_Receiver/Receiver_STM32PPM.h **** #ifdef BOARD_aeroquad32mini
  37:../Libraries/AQ_Receiver/Receiver_STM32PPM.h **** static byte receiverPin = 2; // PB7
  38:../Libraries/AQ_Receiver/Receiver_STM32PPM.h **** #endif
  39:../Libraries/AQ_Receiver/Receiver_STM32PPM.h **** 
  40:../Libraries/AQ_Receiver/Receiver_STM32PPM.h **** #ifdef BOARD_freeflight
  41:../Libraries/AQ_Receiver/Receiver_STM32PPM.h **** static byte receiverPin = Port2Pin('A',  0);
  42:../Libraries/AQ_Receiver/Receiver_STM32PPM.h **** #endif
  43:../Libraries/AQ_Receiver/Receiver_STM32PPM.h **** 
  44:../Libraries/AQ_Receiver/Receiver_STM32PPM.h **** #ifdef BOARD_discovery_f4
  45:../Libraries/AQ_Receiver/Receiver_STM32PPM.h **** static byte receiverPin = Port2Pin('E',  9);
  46:../Libraries/AQ_Receiver/Receiver_STM32PPM.h **** #endif
  47:../Libraries/AQ_Receiver/Receiver_STM32PPM.h **** 
  48:../Libraries/AQ_Receiver/Receiver_STM32PPM.h **** 
  49:../Libraries/AQ_Receiver/Receiver_STM32PPM.h **** #define SERIAL_SUM_PPM_1         1,2,3,0,4,5,6,7 // PITCH,YAW,THR,ROLL... For Graupner/Spektrum
  50:../Libraries/AQ_Receiver/Receiver_STM32PPM.h **** #define SERIAL_SUM_PPM_2         0,1,3,2,4,5,6,7 // ROLL,PITCH,THR,YAW... For Robe/Hitec/Futaba
  51:../Libraries/AQ_Receiver/Receiver_STM32PPM.h **** #define SERIAL_SUM_PPM_3         1,0,3,2,4,5,6,7 // PITCH,ROLL,THR,YAW... For some Hitec/Sanwa/Othe
  52:../Libraries/AQ_Receiver/Receiver_STM32PPM.h **** 
  53:../Libraries/AQ_Receiver/Receiver_STM32PPM.h **** #if defined (SKETCH_SERIAL_SUM_PPM)
  54:../Libraries/AQ_Receiver/Receiver_STM32PPM.h ****   #define SERIAL_SUM_PPM SKETCH_SERIAL_SUM_PPM
  55:../Libraries/AQ_Receiver/Receiver_STM32PPM.h **** #else
  56:../Libraries/AQ_Receiver/Receiver_STM32PPM.h ****   #define SERIAL_SUM_PPM SERIAL_SUM_PPM_1
  57:../Libraries/AQ_Receiver/Receiver_STM32PPM.h **** #endif
  58:../Libraries/AQ_Receiver/Receiver_STM32PPM.h **** 
  59:../Libraries/AQ_Receiver/Receiver_STM32PPM.h **** static byte ReceiverChannelMap[] = {SERIAL_SUM_PPM};
  60:../Libraries/AQ_Receiver/Receiver_STM32PPM.h **** 
  61:../Libraries/AQ_Receiver/Receiver_STM32PPM.h **** uint16 rawChannelValue[8] =  {1500,1500,1500,1500,1500,1500,1500,1500};
  62:../Libraries/AQ_Receiver/Receiver_STM32PPM.h **** byte   currentChannel;
  63:../Libraries/AQ_Receiver/Receiver_STM32PPM.h **** 
  64:../Libraries/AQ_Receiver/Receiver_STM32PPM.h **** 
  65:../Libraries/AQ_Receiver/Receiver_STM32PPM.h **** ///////////////////////////////////////////////////////////////////////////////
  66:../Libraries/AQ_Receiver/Receiver_STM32PPM.h **** // implementation part starts here.
  67:../Libraries/AQ_Receiver/Receiver_STM32PPM.h **** 
  68:../Libraries/AQ_Receiver/Receiver_STM32PPM.h **** typedef struct {
  69:../Libraries/AQ_Receiver/Receiver_STM32PPM.h ****   timer_dev   *TimerDev;
  70:../Libraries/AQ_Receiver/Receiver_STM32PPM.h ****   timer_gen_reg_map *TimerRegs;
  71:../Libraries/AQ_Receiver/Receiver_STM32PPM.h ****   __io uint32	*Timer_ccr;
  72:../Libraries/AQ_Receiver/Receiver_STM32PPM.h ****   uint16		RiseTime;
  73:../Libraries/AQ_Receiver/Receiver_STM32PPM.h ****   int			TimerChannel;
  74:../Libraries/AQ_Receiver/Receiver_STM32PPM.h ****   int			PolarityMask;
  75:../Libraries/AQ_Receiver/Receiver_STM32PPM.h **** } tFrqData;
  76:../Libraries/AQ_Receiver/Receiver_STM32PPM.h **** 
  77:../Libraries/AQ_Receiver/Receiver_STM32PPM.h **** volatile tFrqData FrqData;
  78:../Libraries/AQ_Receiver/Receiver_STM32PPM.h **** 
  79:../Libraries/AQ_Receiver/Receiver_STM32PPM.h **** void FrqInit(int aDefault, timer_dev *aTimer, int aTimerChannel)
  80:../Libraries/AQ_Receiver/Receiver_STM32PPM.h **** {
  81:../Libraries/AQ_Receiver/Receiver_STM32PPM.h ****   aTimerChannel--;  // transform timer channel numbering from 1-4 to 0-3
  82:../Libraries/AQ_Receiver/Receiver_STM32PPM.h **** 
  83:../Libraries/AQ_Receiver/Receiver_STM32PPM.h ****   FrqData.TimerDev     = aTimer;
  84:../Libraries/AQ_Receiver/Receiver_STM32PPM.h ****   timer_gen_reg_map *timer = aTimer->regs.gen;
  85:../Libraries/AQ_Receiver/Receiver_STM32PPM.h ****   FrqData.TimerRegs    = timer;
  86:../Libraries/AQ_Receiver/Receiver_STM32PPM.h ****   
  87:../Libraries/AQ_Receiver/Receiver_STM32PPM.h ****   FrqData.Timer_ccr    = &timer->CCR1 + aTimerChannel;
  88:../Libraries/AQ_Receiver/Receiver_STM32PPM.h ****   FrqData.TimerChannel = aTimerChannel;
  89:../Libraries/AQ_Receiver/Receiver_STM32PPM.h ****   
  90:../Libraries/AQ_Receiver/Receiver_STM32PPM.h ****   int TimerEnable = (1 << (4*aTimerChannel));
  91:../Libraries/AQ_Receiver/Receiver_STM32PPM.h ****   FrqData.PolarityMask = TimerEnable << 1;
  92:../Libraries/AQ_Receiver/Receiver_STM32PPM.h ****   
  93:../Libraries/AQ_Receiver/Receiver_STM32PPM.h ****   uint32 clock_speed = rcc_dev_timer_clk_speed(FrqData.TimerDev->clk_id);
  94:../Libraries/AQ_Receiver/Receiver_STM32PPM.h ****   timer->PSC	= (clock_speed/1000000)-1;
  95:../Libraries/AQ_Receiver/Receiver_STM32PPM.h ****   timer->ARR	= 0xffff;
  96:../Libraries/AQ_Receiver/Receiver_STM32PPM.h ****   timer->CR1	= 0;
  97:../Libraries/AQ_Receiver/Receiver_STM32PPM.h ****   timer->DIER &= ~(1);
  98:../Libraries/AQ_Receiver/Receiver_STM32PPM.h ****   
  99:../Libraries/AQ_Receiver/Receiver_STM32PPM.h ****   timer->CCER &= ~TimerEnable; // Disable timer
 100:../Libraries/AQ_Receiver/Receiver_STM32PPM.h ****   timer->CCER &= ~(FrqData.PolarityMask);
 101:../Libraries/AQ_Receiver/Receiver_STM32PPM.h ****   
 102:../Libraries/AQ_Receiver/Receiver_STM32PPM.h **** #ifdef STM32_TIMER_DEBUG
 103:../Libraries/AQ_Receiver/Receiver_STM32PPM.h ****   Serial.print("  clk ");
 104:../Libraries/AQ_Receiver/Receiver_STM32PPM.h ****   Serial.print(clock_speed/1000000, 10);
 105:../Libraries/AQ_Receiver/Receiver_STM32PPM.h ****   Serial.print("MHz ");
 106:../Libraries/AQ_Receiver/Receiver_STM32PPM.h ****   
 107:../Libraries/AQ_Receiver/Receiver_STM32PPM.h ****   Serial.print(" CCMR0 ");
 108:../Libraries/AQ_Receiver/Receiver_STM32PPM.h ****   Serial.print(timer->CCMR1, 16);
 109:../Libraries/AQ_Receiver/Receiver_STM32PPM.h **** #endif
 110:../Libraries/AQ_Receiver/Receiver_STM32PPM.h ****   
 111:../Libraries/AQ_Receiver/Receiver_STM32PPM.h ****   volatile uint32 *mr;
 112:../Libraries/AQ_Receiver/Receiver_STM32PPM.h ****   if(aTimerChannel < 2) {
 113:../Libraries/AQ_Receiver/Receiver_STM32PPM.h ****     mr = &(timer->CCMR1);
 114:../Libraries/AQ_Receiver/Receiver_STM32PPM.h ****   } else {
 115:../Libraries/AQ_Receiver/Receiver_STM32PPM.h ****     mr = &(timer->CCMR2);
 116:../Libraries/AQ_Receiver/Receiver_STM32PPM.h ****   }
 117:../Libraries/AQ_Receiver/Receiver_STM32PPM.h ****   *mr &= ~(0xFF << (8*(aTimerChannel&1)));	// prescaler 1
 118:../Libraries/AQ_Receiver/Receiver_STM32PPM.h ****   *mr |= 0x61 << (8*(aTimerChannel&1));		// 0x61 -> 6=filter, 1=inputs 1,2,3,4
 119:../Libraries/AQ_Receiver/Receiver_STM32PPM.h ****   
 120:../Libraries/AQ_Receiver/Receiver_STM32PPM.h ****   timer->CCER |= TimerEnable; // Enable
 121:../Libraries/AQ_Receiver/Receiver_STM32PPM.h ****   timer->CR1 = 1;
 122:../Libraries/AQ_Receiver/Receiver_STM32PPM.h ****   
 123:../Libraries/AQ_Receiver/Receiver_STM32PPM.h **** #ifdef STM32_TIMER_DEBUG
 124:../Libraries/AQ_Receiver/Receiver_STM32PPM.h ****   Serial.print(" CCER ");
 125:../Libraries/AQ_Receiver/Receiver_STM32PPM.h ****   Serial.print(timer->CCER, 16);
 126:../Libraries/AQ_Receiver/Receiver_STM32PPM.h ****   Serial.print(" CCMR1 ");
 127:../Libraries/AQ_Receiver/Receiver_STM32PPM.h ****   Serial.print(timer->CCMR1, 16);
 128:../Libraries/AQ_Receiver/Receiver_STM32PPM.h ****   Serial.println();
 129:../Libraries/AQ_Receiver/Receiver_STM32PPM.h **** #endif
 130:../Libraries/AQ_Receiver/Receiver_STM32PPM.h **** }
 131:../Libraries/AQ_Receiver/Receiver_STM32PPM.h **** 
 132:../Libraries/AQ_Receiver/Receiver_STM32PPM.h **** void FrqChange()
 133:../Libraries/AQ_Receiver/Receiver_STM32PPM.h **** {
 149              		.loc 4 133 0
 150              		.cfi_startproc
 151              		@ args = 0, pretend = 0, frame = 0
 152              		@ frame_needed = 0, uses_anonymous_args = 0
 153              	.LBB15:
 134:../Libraries/AQ_Receiver/Receiver_STM32PPM.h ****   timer_gen_reg_map *timer = FrqData.TimerRegs;
 154              		.loc 4 134 0
 155 0000 174B     		ldr	r3, .L16
 156              	.LBE15:
 133:../Libraries/AQ_Receiver/Receiver_STM32PPM.h **** {
 157              		.loc 4 133 0
 158 0002 30B5     		push	{r4, r5, lr}
 159              	.LCFI1:
 160              		.cfi_def_cfa_offset 12
 161              		.cfi_offset 14, -4
 162              		.cfi_offset 5, -8
 163              		.cfi_offset 4, -12
 164              	.LBB18:
 165              		.loc 4 134 0
 166 0004 5868     		ldr	r0, [r3, #4]
 167              	.LVL7:
 135:../Libraries/AQ_Receiver/Receiver_STM32PPM.h ****   uint16_t c = *(FrqData.Timer_ccr);
 168              		.loc 4 135 0
 169 0006 9C68     		ldr	r4, [r3, #8]
 170 0008 2468     		ldr	r4, [r4, #0]
 171              	.LVL8:
 136:../Libraries/AQ_Receiver/Receiver_STM32PPM.h ****   bool rising = (timer->CCER & FrqData.PolarityMask) == 0;
 172              		.loc 4 136 0
 173 000a 026A     		ldr	r2, [r0, #32]
 174 000c 5969     		ldr	r1, [r3, #20]
 175              	.LVL9:
 176              	.LBB16:
 137:../Libraries/AQ_Receiver/Receiver_STM32PPM.h **** 
 138:../Libraries/AQ_Receiver/Receiver_STM32PPM.h ****   if(rising) {
 177              		.loc 4 138 0
 178 000e 11EA0200 		ands	r0, r1, r2
 179              	.LVL10:
 180 0012 1DD1     		bne	.L11
 181              	.LBB17:
 139:../Libraries/AQ_Receiver/Receiver_STM32PPM.h ****     uint16_t diffTime = c - FrqData.RiseTime;
 182              		.loc 4 139 0
 183 0014 9D89     		ldrh	r5, [r3, #12]
 184 0016 611B     		subs	r1, r4, r5
 185              	.LVL11:
 186 0018 89B2     		uxth	r1, r1
 187              	.LVL12:
 140:../Libraries/AQ_Receiver/Receiver_STM32PPM.h ****     if ((diffTime>900) && (diffTime<2100)) {
 188              		.loc 4 140 0
 189 001a A1F56072 		sub	r2, r1, #896
 190 001e 551F     		subs	r5, r2, #5
 191 0020 1FFA85FC 		uxth	ip, r5
 192 0024 40F2AE45 		movw	r5, #1198
 193 0028 AC45     		cmp	ip, r5
 194 002a 0E4A     		ldr	r2, .L16+4
 195 002c 07D8     		bhi	.L12
 141:../Libraries/AQ_Receiver/Receiver_STM32PPM.h ****       if (currentChannel<8) {
 196              		.loc 4 141 0
 197 002e 1078     		ldrb	r0, [r2, #0]	@ zero_extendqisi2
 198 0030 0728     		cmp	r0, #7
 199 0032 0CD8     		bhi	.L13
 142:../Libraries/AQ_Receiver/Receiver_STM32PPM.h **** 	rawChannelValue[currentChannel]=diffTime;
 200              		.loc 4 142 0
 201 0034 0C4D     		ldr	r5, .L16+8
 202 0036 25F81010 		strh	r1, [r5, r0, lsl #1]	@ movhi
 143:../Libraries/AQ_Receiver/Receiver_STM32PPM.h **** 	currentChannel++;
 203              		.loc 4 143 0
 204 003a 0130     		adds	r0, r0, #1
 205 003c 03E0     		b	.L15
 206              	.L12:
 144:../Libraries/AQ_Receiver/Receiver_STM32PPM.h ****       }
 145:../Libraries/AQ_Receiver/Receiver_STM32PPM.h ****     } else if (diffTime>2500) {
 207              		.loc 4 145 0
 208 003e 40F6C415 		movw	r5, #2500
 209 0042 A942     		cmp	r1, r5
 210 0044 01D9     		bls	.L14
 211              	.L15:
 146:../Libraries/AQ_Receiver/Receiver_STM32PPM.h ****       currentChannel=0;
 212              		.loc 4 146 0
 213 0046 1070     		strb	r0, [r2, #0]
 214 0048 01E0     		b	.L13
 215              	.L14:
 147:../Libraries/AQ_Receiver/Receiver_STM32PPM.h ****     } else {
 148:../Libraries/AQ_Receiver/Receiver_STM32PPM.h ****       // glitch stop and wait next round
 149:../Libraries/AQ_Receiver/Receiver_STM32PPM.h ****       currentChannel=9;
 216              		.loc 4 149 0
 217 004a 0920     		movs	r0, #9
 218 004c 1070     		strb	r0, [r2, #0]
 219              	.L13:
 150:../Libraries/AQ_Receiver/Receiver_STM32PPM.h ****     }
 151:../Libraries/AQ_Receiver/Receiver_STM32PPM.h ****     //    Serial.print(highTime);
 152:../Libraries/AQ_Receiver/Receiver_STM32PPM.h ****     //    Serial.println();
 153:../Libraries/AQ_Receiver/Receiver_STM32PPM.h ****     FrqData.RiseTime = c;
 220              		.loc 4 153 0
 221 004e 9C81     		strh	r4, [r3, #12]	@ movhi
 222              	.LVL13:
 223              	.L11:
 224              	.LBE17:
 225              	.LBE16:
 154:../Libraries/AQ_Receiver/Receiver_STM32PPM.h ****   }
 155:../Libraries/AQ_Receiver/Receiver_STM32PPM.h ****   FrqData.TimerRegs->CCER ^= FrqData.PolarityMask; // invert polarity
 226              		.loc 4 155 0
 227 0050 5A68     		ldr	r2, [r3, #4]
 228 0052 116A     		ldr	r1, [r2, #32]
 229 0054 5869     		ldr	r0, [r3, #20]
 230 0056 80EA0103 		eor	r3, r0, r1
 231 005a 1362     		str	r3, [r2, #32]
 232              	.LBE18:
 156:../Libraries/AQ_Receiver/Receiver_STM32PPM.h **** }
 233              		.loc 4 156 0
 234 005c 30BD     		pop	{r4, r5, pc}
 235              	.L17:
 236 005e 00BF     		.align	2
 237              	.L16:
 238 0060 00000000 		.word	.LANCHOR0
 239 0064 00000000 		.word	.LANCHOR1
 240 0068 00000000 		.word	.LANCHOR2
 241              		.cfi_endproc
 242              	.LFE172:
 244              		.section	.text._ZL16hottV4SendBinaryPh,"ax",%progbits
 245              		.align	1
 246              		.thumb
 247              		.thumb_func
 249              	_ZL16hottV4SendBinaryPh:
 250              	.LFB258:
 251              		.file 5 "../Libraries/AQ_HOTT/HoTT_Telemetry.h"
   1:../Libraries/AQ_HOTT/HoTT_Telemetry.h **** /*
   2:../Libraries/AQ_HOTT/HoTT_Telemetry.h ****   AeroQuad v3.0.1 - February 2012
   3:../Libraries/AQ_HOTT/HoTT_Telemetry.h ****   www.AeroQuad.com
   4:../Libraries/AQ_HOTT/HoTT_Telemetry.h ****   Copyright (c) 2012 Ted Carancho.  All rights reserved.
   5:../Libraries/AQ_HOTT/HoTT_Telemetry.h ****   An Open Source Arduino based multicopter.
   6:../Libraries/AQ_HOTT/HoTT_Telemetry.h ****  
   7:../Libraries/AQ_HOTT/HoTT_Telemetry.h ****   This program is free software: you can redistribute it and/or modify 
   8:../Libraries/AQ_HOTT/HoTT_Telemetry.h ****   it under the terms of the GNU General Public License as published by 
   9:../Libraries/AQ_HOTT/HoTT_Telemetry.h ****   the Free Software Foundation, either version 3 of the License, or 
  10:../Libraries/AQ_HOTT/HoTT_Telemetry.h ****   (at your option) any later version. 
  11:../Libraries/AQ_HOTT/HoTT_Telemetry.h **** 
  12:../Libraries/AQ_HOTT/HoTT_Telemetry.h ****   This program is distributed in the hope that it will be useful, 
  13:../Libraries/AQ_HOTT/HoTT_Telemetry.h ****   but WITHOUT ANY WARRANTY; without even the implied warranty of 
  14:../Libraries/AQ_HOTT/HoTT_Telemetry.h ****   MERCHANTABILITY or FITNESS FOR A PARTICULAR PURPOSE. See the 
  15:../Libraries/AQ_HOTT/HoTT_Telemetry.h ****   GNU General Public License for more details. 
  16:../Libraries/AQ_HOTT/HoTT_Telemetry.h **** 
  17:../Libraries/AQ_HOTT/HoTT_Telemetry.h ****   You should have received a copy of the GNU General Public License 
  18:../Libraries/AQ_HOTT/HoTT_Telemetry.h ****   along with this program. If not, see <http://www.gnu.org/licenses/>. 
  19:../Libraries/AQ_HOTT/HoTT_Telemetry.h **** */
  20:../Libraries/AQ_HOTT/HoTT_Telemetry.h **** 
  21:../Libraries/AQ_HOTT/HoTT_Telemetry.h **** #ifndef _AEROQUAD_HOTT_TELEMETRY_H_
  22:../Libraries/AQ_HOTT/HoTT_Telemetry.h **** #define _AEROQUAD_HOTT_TELEMETRY_H_
  23:../Libraries/AQ_HOTT/HoTT_Telemetry.h **** 
  24:../Libraries/AQ_HOTT/HoTT_Telemetry.h **** #include "HoTT.h"
  25:../Libraries/AQ_HOTT/HoTT_Telemetry.h **** #include <stdio.h>
  26:../Libraries/AQ_HOTT/HoTT_Telemetry.h **** 
  27:../Libraries/AQ_HOTT/HoTT_Telemetry.h **** HardwareSerial *hottV4Serial;
  28:../Libraries/AQ_HOTT/HoTT_Telemetry.h **** 
  29:../Libraries/AQ_HOTT/HoTT_Telemetry.h **** static uint8_t minutes = 0;
  30:../Libraries/AQ_HOTT/HoTT_Telemetry.h **** static uint16_t milliseconds = 0;
  31:../Libraries/AQ_HOTT/HoTT_Telemetry.h **** static signed int maxAltitude = 500;
  32:../Libraries/AQ_HOTT/HoTT_Telemetry.h **** static signed int minAltitude = 500;
  33:../Libraries/AQ_HOTT/HoTT_Telemetry.h **** volatile unsigned int CountMilliseconds = 0;
  34:../Libraries/AQ_HOTT/HoTT_Telemetry.h **** bool isAHOff, isAHOn, isNavOn, isHoldOn, isGPSOff;
  35:../Libraries/AQ_HOTT/HoTT_Telemetry.h **** 
  36:../Libraries/AQ_HOTT/HoTT_Telemetry.h **** /* ##################################################################### *
  37:../Libraries/AQ_HOTT/HoTT_Telemetry.h ****  *                HoTTv4 Common Serial                                   *
  38:../Libraries/AQ_HOTT/HoTT_Telemetry.h ****  * ##################################################################### */
  39:../Libraries/AQ_HOTT/HoTT_Telemetry.h **** 
  40:../Libraries/AQ_HOTT/HoTT_Telemetry.h **** 
  41:../Libraries/AQ_HOTT/HoTT_Telemetry.h **** /**
  42:../Libraries/AQ_HOTT/HoTT_Telemetry.h ****  * Writes out given data to data register.
  43:../Libraries/AQ_HOTT/HoTT_Telemetry.h ****  */
  44:../Libraries/AQ_HOTT/HoTT_Telemetry.h **** static void hottV4SerialWrite(uint8_t data) {
  45:../Libraries/AQ_HOTT/HoTT_Telemetry.h ****   hottV4Serial->write(data);
  46:../Libraries/AQ_HOTT/HoTT_Telemetry.h **** }
  47:../Libraries/AQ_HOTT/HoTT_Telemetry.h **** 
  48:../Libraries/AQ_HOTT/HoTT_Telemetry.h **** /**
  49:../Libraries/AQ_HOTT/HoTT_Telemetry.h ****  * Clears input buffer
  50:../Libraries/AQ_HOTT/HoTT_Telemetry.h ****  */
  51:../Libraries/AQ_HOTT/HoTT_Telemetry.h **** void hottV4SerialClearInput() {
  52:../Libraries/AQ_HOTT/HoTT_Telemetry.h **** 	while(hottV4Serial->available() > 0) {
  53:../Libraries/AQ_HOTT/HoTT_Telemetry.h **** 		hottV4Serial->read();
  54:../Libraries/AQ_HOTT/HoTT_Telemetry.h **** 	}
  55:../Libraries/AQ_HOTT/HoTT_Telemetry.h **** }
  56:../Libraries/AQ_HOTT/HoTT_Telemetry.h **** 
  57:../Libraries/AQ_HOTT/HoTT_Telemetry.h **** /**
  58:../Libraries/AQ_HOTT/HoTT_Telemetry.h ****  * Reads last byte from input buffer
  59:../Libraries/AQ_HOTT/HoTT_Telemetry.h ****  */
  60:../Libraries/AQ_HOTT/HoTT_Telemetry.h **** int hottV4SerialRead() {
  61:../Libraries/AQ_HOTT/HoTT_Telemetry.h **** 	while(hottV4Serial->available() > 1) {
  62:../Libraries/AQ_HOTT/HoTT_Telemetry.h **** 		hottV4Serial->read();
  63:../Libraries/AQ_HOTT/HoTT_Telemetry.h **** 	}
  64:../Libraries/AQ_HOTT/HoTT_Telemetry.h ****     if(hottV4Serial->available()) {
  65:../Libraries/AQ_HOTT/HoTT_Telemetry.h ****     	return hottV4Serial->read();
  66:../Libraries/AQ_HOTT/HoTT_Telemetry.h ****     } else {
  67:../Libraries/AQ_HOTT/HoTT_Telemetry.h ****     	return 0xff;
  68:../Libraries/AQ_HOTT/HoTT_Telemetry.h ****     }
  69:../Libraries/AQ_HOTT/HoTT_Telemetry.h **** }
  70:../Libraries/AQ_HOTT/HoTT_Telemetry.h **** 
  71:../Libraries/AQ_HOTT/HoTT_Telemetry.h **** 
  72:../Libraries/AQ_HOTT/HoTT_Telemetry.h **** 
  73:../Libraries/AQ_HOTT/HoTT_Telemetry.h **** #define hottV4TelemetryBufferSize 45
  74:../Libraries/AQ_HOTT/HoTT_Telemetry.h **** static uint8_t  hottV4TelemetryBuffer[hottV4TelemetryBufferSize];
  75:../Libraries/AQ_HOTT/HoTT_Telemetry.h **** static byte  hottV4TelemetryBufferIndex;
  76:../Libraries/AQ_HOTT/HoTT_Telemetry.h **** 
  77:../Libraries/AQ_HOTT/HoTT_Telemetry.h **** /**
  78:../Libraries/AQ_HOTT/HoTT_Telemetry.h ****  * Buffer telemetry data
  79:../Libraries/AQ_HOTT/HoTT_Telemetry.h ****  */
  80:../Libraries/AQ_HOTT/HoTT_Telemetry.h **** static void hottV4SendBinary(uint8_t *data) {
 252              		.loc 5 80 0
 253              		.cfi_startproc
 254              		@ args = 0, pretend = 0, frame = 0
 255              		@ frame_needed = 0, uses_anonymous_args = 0
 256              	.LVL14:
 257 0000 10B5     		push	{r4, lr}
 258              	.LCFI2:
 259              		.cfi_def_cfa_offset 8
 260              		.cfi_offset 14, -4
 261              		.cfi_offset 4, -8
 262              		.loc 5 80 0
 263 0002 0023     		movs	r3, #0
  81:../Libraries/AQ_HOTT/HoTT_Telemetry.h ****   uint16_t crc = 0;
 264              		.loc 5 81 0
 265 0004 1A46     		mov	r2, r3
 266              	.LVL15:
 267              	.L19:
 268              	.LBB19:
 269              	.LBB20:
  82:../Libraries/AQ_HOTT/HoTT_Telemetry.h **** 
  83:../Libraries/AQ_HOTT/HoTT_Telemetry.h ****   for (uint8_t index = 0; index < hottV4TelemetryBufferSize-1; index++) {
  84:../Libraries/AQ_HOTT/HoTT_Telemetry.h ****     crc = crc + data[index];
 270              		.loc 5 84 0 discriminator 2
 271 0006 C45C     		ldrb	r4, [r0, r3]	@ zero_extendqisi2
  85:../Libraries/AQ_HOTT/HoTT_Telemetry.h ****     hottV4TelemetryBuffer[index] = data[index];
 272              		.loc 5 85 0 discriminator 2
 273 0008 0649     		ldr	r1, .L21
 274 000a 5C54     		strb	r4, [r3, r1]
 275 000c 0133     		adds	r3, r3, #1
  84:../Libraries/AQ_HOTT/HoTT_Telemetry.h ****     crc = crc + data[index];
 276              		.loc 5 84 0 discriminator 2
 277 000e A218     		adds	r2, r4, r2
  83:../Libraries/AQ_HOTT/HoTT_Telemetry.h ****   for (uint8_t index = 0; index < hottV4TelemetryBufferSize-1; index++) {
 278              		.loc 5 83 0 discriminator 2
 279 0010 2C2B     		cmp	r3, #44
  84:../Libraries/AQ_HOTT/HoTT_Telemetry.h ****     crc = crc + data[index];
 280              		.loc 5 84 0 discriminator 2
 281 0012 92B2     		uxth	r2, r2
 282              	.LVL16:
  83:../Libraries/AQ_HOTT/HoTT_Telemetry.h ****   for (uint8_t index = 0; index < hottV4TelemetryBufferSize-1; index++) {
 283              		.loc 5 83 0 discriminator 2
 284 0014 F7D1     		bne	.L19
 285              	.LVL17:
 286              	.LBE20:
  86:../Libraries/AQ_HOTT/HoTT_Telemetry.h ****    }
  87:../Libraries/AQ_HOTT/HoTT_Telemetry.h **** 
  88:../Libraries/AQ_HOTT/HoTT_Telemetry.h ****   uint8_t crcVal = crc & 0xFF;
  89:../Libraries/AQ_HOTT/HoTT_Telemetry.h ****   hottV4TelemetryBuffer[hottV4TelemetryBufferSize-1] = crcVal;
  90:../Libraries/AQ_HOTT/HoTT_Telemetry.h **** 
  91:../Libraries/AQ_HOTT/HoTT_Telemetry.h ****   hottV4TelemetryBufferIndex = 0;
 287              		.loc 5 91 0
 288 0016 044B     		ldr	r3, .L21+4
  88:../Libraries/AQ_HOTT/HoTT_Telemetry.h ****   uint8_t crcVal = crc & 0xFF;
 289              		.loc 5 88 0
 290 0018 81F82C20 		strb	r2, [r1, #44]
 291              		.loc 5 91 0
 292 001c 0020     		movs	r0, #0
 293              	.LVL18:
 294 001e 1870     		strb	r0, [r3, #0]
 295              	.LBE19:
  92:../Libraries/AQ_HOTT/HoTT_Telemetry.h **** }
 296              		.loc 5 92 0
 297 0020 10BD     		pop	{r4, pc}
 298              	.L22:
 299 0022 00BF     		.align	2
 300              	.L21:
 301 0024 00000000 		.word	.LANCHOR3
 302 0028 00000000 		.word	.LANCHOR4
 303              		.cfi_endproc
 304              	.LFE258:
 306              		.section	.text._ZL20hottv4UpdateAltVariov,"ax",%progbits
 307              		.align	1
 308              		.thumb
 309              		.thumb_func
 311              	_ZL20hottv4UpdateAltVariov:
 312              	.LFB265:
  93:../Libraries/AQ_HOTT/HoTT_Telemetry.h **** 
  94:../Libraries/AQ_HOTT/HoTT_Telemetry.h **** 
  95:../Libraries/AQ_HOTT/HoTT_Telemetry.h **** /* ##################################################################### *
  96:../Libraries/AQ_HOTT/HoTT_Telemetry.h ****  *                HoTTv4 Module specific Update functions                *
  97:../Libraries/AQ_HOTT/HoTT_Telemetry.h ****  * ##################################################################### */
  98:../Libraries/AQ_HOTT/HoTT_Telemetry.h **** 
  99:../Libraries/AQ_HOTT/HoTT_Telemetry.h **** #if defined(HOTTV4DIR)
 100:../Libraries/AQ_HOTT/HoTT_Telemetry.h **** /**
 101:../Libraries/AQ_HOTT/HoTT_Telemetry.h ****  * Updates current direction related on compass information.
 102:../Libraries/AQ_HOTT/HoTT_Telemetry.h ****  */
 103:../Libraries/AQ_HOTT/HoTT_Telemetry.h **** static int hottV4UpdateDirection() {
 104:../Libraries/AQ_HOTT/HoTT_Telemetry.h **** 	return ((int)(trueNorthHeading / M_PI * 180.0) + 360) % 360;
 105:../Libraries/AQ_HOTT/HoTT_Telemetry.h **** 	}
 106:../Libraries/AQ_HOTT/HoTT_Telemetry.h **** #endif
 107:../Libraries/AQ_HOTT/HoTT_Telemetry.h **** 
 108:../Libraries/AQ_HOTT/HoTT_Telemetry.h **** static void HoTTInvertDisplay(uint8_t *data) {
 109:../Libraries/AQ_HOTT/HoTT_Telemetry.h ****     data[4] = 0x80; // Inverts MikroKopter Telemetry Display for Voltage
 110:../Libraries/AQ_HOTT/HoTT_Telemetry.h **** }
 111:../Libraries/AQ_HOTT/HoTT_Telemetry.h **** 
 112:../Libraries/AQ_HOTT/HoTT_Telemetry.h **** #if defined(HOTTV4BATT)
 113:../Libraries/AQ_HOTT/HoTT_Telemetry.h **** /**
 114:../Libraries/AQ_HOTT/HoTT_Telemetry.h ****  * Updates battery voltage telemetry data with given value.
 115:../Libraries/AQ_HOTT/HoTT_Telemetry.h ****  * Resolution is in 0,1V, e.g. 0x7E == 12,6V.
 116:../Libraries/AQ_HOTT/HoTT_Telemetry.h ****  * If value is below batteryWarning, telemetry alarm is triggered
 117:../Libraries/AQ_HOTT/HoTT_Telemetry.h ****  */
 118:../Libraries/AQ_HOTT/HoTT_Telemetry.h **** static short hottv4UpdateBattery(uint8_t *data) {
 119:../Libraries/AQ_HOTT/HoTT_Telemetry.h **** 	short voltage = batteryData[0].voltage/10;
 120:../Libraries/AQ_HOTT/HoTT_Telemetry.h **** 
 121:../Libraries/AQ_HOTT/HoTT_Telemetry.h **** 	if (batteryWarning || batteryAlarm) {
 122:../Libraries/AQ_HOTT/HoTT_Telemetry.h **** 		HoTTInvertDisplay(data);
 123:../Libraries/AQ_HOTT/HoTT_Telemetry.h **** 	}
 124:../Libraries/AQ_HOTT/HoTT_Telemetry.h **** 
 125:../Libraries/AQ_HOTT/HoTT_Telemetry.h **** 	return voltage;
 126:../Libraries/AQ_HOTT/HoTT_Telemetry.h **** }
 127:../Libraries/AQ_HOTT/HoTT_Telemetry.h **** 
 128:../Libraries/AQ_HOTT/HoTT_Telemetry.h **** static short hottv4UpdateCurrent() {
 129:../Libraries/AQ_HOTT/HoTT_Telemetry.h **** 	if (batteryData[0].cPin != BM_NOPIN) return batteryData[0].current/100;
 130:../Libraries/AQ_HOTT/HoTT_Telemetry.h **** 	return 0;
 131:../Libraries/AQ_HOTT/HoTT_Telemetry.h **** }
 132:../Libraries/AQ_HOTT/HoTT_Telemetry.h **** 
 133:../Libraries/AQ_HOTT/HoTT_Telemetry.h **** static long hottv4UpdateCapacity() {
 134:../Libraries/AQ_HOTT/HoTT_Telemetry.h **** 	if (batteryData[0].cPin != BM_NOPIN) return batteryData[0].usedCapacity/1000;
 135:../Libraries/AQ_HOTT/HoTT_Telemetry.h **** 	return 0;
 136:../Libraries/AQ_HOTT/HoTT_Telemetry.h **** }
 137:../Libraries/AQ_HOTT/HoTT_Telemetry.h **** #endif
 138:../Libraries/AQ_HOTT/HoTT_Telemetry.h **** 
 139:../Libraries/AQ_HOTT/HoTT_Telemetry.h **** 
 140:../Libraries/AQ_HOTT/HoTT_Telemetry.h **** #if defined(AltitudeHoldBaro) || defined(AltitudeHoldRangeFinder)
 141:../Libraries/AQ_HOTT/HoTT_Telemetry.h **** /**
 142:../Libraries/AQ_HOTT/HoTT_Telemetry.h ****  * Current relative altitude based on baro or ultrasonic values. 
 143:../Libraries/AQ_HOTT/HoTT_Telemetry.h ****  * Result is displayed in meter.
 144:../Libraries/AQ_HOTT/HoTT_Telemetry.h ****  *
 145:../Libraries/AQ_HOTT/HoTT_Telemetry.h ****  * @param data Pointer to telemetry data frame
 146:../Libraries/AQ_HOTT/HoTT_Telemetry.h ****  * @param lowByteIndex Index for the low byte that represents the altitude in telemetry data frame
 147:../Libraries/AQ_HOTT/HoTT_Telemetry.h ****  */
 148:../Libraries/AQ_HOTT/HoTT_Telemetry.h **** static int32_t hottv4UpdateAlt() {
 149:../Libraries/AQ_HOTT/HoTT_Telemetry.h ****   int32_t alt = 0;
 150:../Libraries/AQ_HOTT/HoTT_Telemetry.h ****   
 151:../Libraries/AQ_HOTT/HoTT_Telemetry.h **** #if defined(AltitudeHoldBaro)
 152:../Libraries/AQ_HOTT/HoTT_Telemetry.h ****   alt = (int)getBaroAltitude() + 500;  // 500 == 0m
 153:../Libraries/AQ_HOTT/HoTT_Telemetry.h **** #endif 
 154:../Libraries/AQ_HOTT/HoTT_Telemetry.h **** 
 155:../Libraries/AQ_HOTT/HoTT_Telemetry.h **** #if defined(AltitudeHoldRangeFinder)
 156:../Libraries/AQ_HOTT/HoTT_Telemetry.h ****   if (isOnRangerRange(rangeFinderRange[ALTITUDE_RANGE_FINDER_INDEX])) {
 157:../Libraries/AQ_HOTT/HoTT_Telemetry.h **** 	alt = (int)rangeFinderRange[ALTITUDE_RANGE_FINDER_INDEX] + 500;
 158:../Libraries/AQ_HOTT/HoTT_Telemetry.h ****   }
 159:../Libraries/AQ_HOTT/HoTT_Telemetry.h **** #endif
 160:../Libraries/AQ_HOTT/HoTT_Telemetry.h ****   
 161:../Libraries/AQ_HOTT/HoTT_Telemetry.h ****   if(alt > maxAltitude) maxAltitude = alt;
 162:../Libraries/AQ_HOTT/HoTT_Telemetry.h ****   else if(alt < minAltitude) minAltitude = alt;
 163:../Libraries/AQ_HOTT/HoTT_Telemetry.h **** 
 164:../Libraries/AQ_HOTT/HoTT_Telemetry.h ****   return alt;
 165:../Libraries/AQ_HOTT/HoTT_Telemetry.h **** }
 166:../Libraries/AQ_HOTT/HoTT_Telemetry.h **** 
 167:../Libraries/AQ_HOTT/HoTT_Telemetry.h **** 
 168:../Libraries/AQ_HOTT/HoTT_Telemetry.h **** static unsigned int hottv4UpdateAltVario() {
 313              		.loc 5 168 0
 314              		.cfi_startproc
 315              		@ args = 0, pretend = 0, frame = 0
 316              		@ frame_needed = 0, uses_anonymous_args = 0
 317              	.LVL19:
 318 0000 10B5     		push	{r4, lr}
 319              	.LCFI3:
 320              		.cfi_def_cfa_offset 8
 321              		.cfi_offset 14, -4
 322              		.cfi_offset 4, -8
 323              	.LBB21:
 169:../Libraries/AQ_HOTT/HoTT_Telemetry.h **** 	unsigned int varioSound = 30000;
 170:../Libraries/AQ_HOTT/HoTT_Telemetry.h **** 
 171:../Libraries/AQ_HOTT/HoTT_Telemetry.h **** 	if(altitudeHoldState == ON)
 324              		.loc 5 171 0
 325 0002 0E48     		ldr	r0, .L28
 326 0004 0378     		ldrb	r3, [r0, #0]	@ zero_extendqisi2
 327 0006 012B     		cmp	r3, #1
 328 0008 12D1     		bne	.L25
 172:../Libraries/AQ_HOTT/HoTT_Telemetry.h **** 	{
 173:../Libraries/AQ_HOTT/HoTT_Telemetry.h **** 		if((receiverCommand[THROTTLE] > (altitudeHoldThrottle + altitudeHoldBump))) varioSound = 30100;
 329              		.loc 5 173 0
 330 000a 0D48     		ldr	r0, .L28+4
 331 000c 0D4A     		ldr	r2, .L28+8
 332 000e 0E4B     		ldr	r3, .L28+12
 333 0010 0068     		ldr	r0, [r0, #0]
 334 0012 1268     		ldr	r2, [r2, #0]
 335 0014 DB68     		ldr	r3, [r3, #12]
 336 0016 8118     		adds	r1, r0, r2
 337 0018 8B42     		cmp	r3, r1
 338 001a 0CDC     		bgt	.L26
 174:../Libraries/AQ_HOTT/HoTT_Telemetry.h **** 		else if((receiverCommand[THROTTLE] < (altitudeHoldThrottle - altitudeHoldBump))) varioSound = 299
 339              		.loc 5 174 0
 340 001c 821A     		subs	r2, r0, r2
 169:../Libraries/AQ_HOTT/HoTT_Telemetry.h **** 	unsigned int varioSound = 30000;
 341              		.loc 5 169 0
 342 001e 47F2305C 		movw	ip, #30000
 343 0022 47F2CC44 		movw	r4, #29900
 344 0026 9342     		cmp	r3, r2
 345 0028 B4BF     		ite	lt
 346 002a 2046     		movlt	r0, r4
 347 002c 6046     		movge	r0, ip
 348 002e 10BD     		pop	{r4, pc}
 349              	.L25:
 350 0030 47F23050 		movw	r0, #30000
 351 0034 10BD     		pop	{r4, pc}
 352              	.L26:
 173:../Libraries/AQ_HOTT/HoTT_Telemetry.h **** 		if((receiverCommand[THROTTLE] > (altitudeHoldThrottle + altitudeHoldBump))) varioSound = 30100;
 353              		.loc 5 173 0
 354 0036 47F29450 		movw	r0, #30100
 355              	.LVL20:
 356              	.LBE21:
 175:../Libraries/AQ_HOTT/HoTT_Telemetry.h **** 	}
 176:../Libraries/AQ_HOTT/HoTT_Telemetry.h **** 
 177:../Libraries/AQ_HOTT/HoTT_Telemetry.h **** 	return varioSound;
 178:../Libraries/AQ_HOTT/HoTT_Telemetry.h **** }
 357              		.loc 5 178 0
 358 003a 10BD     		pop	{r4, pc}
 359              	.L29:
 360              		.align	2
 361              	.L28:
 362 003c 00000000 		.word	.LANCHOR5
 363 0040 00000000 		.word	.LANCHOR7
 364 0044 00000000 		.word	.LANCHOR8
 365 0048 00000000 		.word	.LANCHOR6
 366              		.cfi_endproc
 367              	.LFE265:
 369              		.section	.text.startup._Z7premainv,"ax",%progbits
 370              		.align	1
 371              		.global	_Z7premainv
 372              		.thumb
 373              		.thumb_func
 375              	_Z7premainv:
 376              	.LFB114:
 377              		.file 6 "C:/MinGW/msys/1.0/home/LordHahn/AeroQuad32/AeroQuadMain.cpp"
   1:C:/MinGW/msys/1.0/home/LordHahn/AeroQuad32\AeroQuadMain.cpp **** #include <SerialMapping.h>
   2:C:/MinGW/msys/1.0/home/LordHahn/AeroQuad32\AeroQuadMain.cpp **** #include <WProgram.h>
   3:C:/MinGW/msys/1.0/home/LordHahn/AeroQuad32\AeroQuadMain.cpp **** 
   4:C:/MinGW/msys/1.0/home/LordHahn/AeroQuad32\AeroQuadMain.cpp **** __attribute__(( constructor )) void premain() {
 378              		.loc 6 4 0
 379              		.cfi_startproc
 380              		@ args = 0, pretend = 0, frame = 0
 381              		@ frame_needed = 0, uses_anonymous_args = 0
 382              		@ link register save eliminated.
   5:C:/MinGW/msys/1.0/home/LordHahn/AeroQuad32\AeroQuadMain.cpp ****     init();
   6:C:/MinGW/msys/1.0/home/LordHahn/AeroQuad32\AeroQuadMain.cpp **** }
 383              		.loc 6 6 0
   5:C:/MinGW/msys/1.0/home/LordHahn/AeroQuad32\AeroQuadMain.cpp ****     init();
 384              		.loc 6 5 0
 385 0000 FFF7FEBF 		b	_Z4initv
 386              		.cfi_endproc
 387              	.LFE114:
 389              		.section	.init_array,"aw",%init_array
 390              		.align	2
 391 0000 00000000 		.word	_Z7premainv(target1)
 392              		.section	.text._Z23initializeReceiverParami,"ax",%progbits
 393              		.align	1
 394              		.global	_Z23initializeReceiverParami
 395              		.thumb
 396              		.thumb_func
 398              	_Z23initializeReceiverParami:
 399              	.LFB122:
 400              		.file 7 "../Libraries/AQ_Receiver/Receiver.h"
   1:../Libraries/AQ_Receiver/Receiver.h **** /*
   2:../Libraries/AQ_Receiver/Receiver.h ****   AeroQuad v3.0.1 - February 2012
   3:../Libraries/AQ_Receiver/Receiver.h ****   www.AeroQuad.com
   4:../Libraries/AQ_Receiver/Receiver.h ****   Copyright (c) 2012 Ted Carancho.  All rights reserved.
   5:../Libraries/AQ_Receiver/Receiver.h ****   An Open Source Arduino based multicopter.
   6:../Libraries/AQ_Receiver/Receiver.h ****  
   7:../Libraries/AQ_Receiver/Receiver.h ****   This program is free software: you can redistribute it and/or modify 
   8:../Libraries/AQ_Receiver/Receiver.h ****   it under the terms of the GNU General Public License as published by 
   9:../Libraries/AQ_Receiver/Receiver.h ****   the Free Software Foundation, either version 3 of the License, or 
  10:../Libraries/AQ_Receiver/Receiver.h ****   (at your option) any later version. 
  11:../Libraries/AQ_Receiver/Receiver.h **** 
  12:../Libraries/AQ_Receiver/Receiver.h ****   This program is distributed in the hope that it will be useful, 
  13:../Libraries/AQ_Receiver/Receiver.h ****   but WITHOUT ANY WARRANTY; without even the implied warranty of 
  14:../Libraries/AQ_Receiver/Receiver.h ****   MERCHANTABILITY or FITNESS FOR A PARTICULAR PURPOSE. See the 
  15:../Libraries/AQ_Receiver/Receiver.h ****   GNU General Public License for more details. 
  16:../Libraries/AQ_Receiver/Receiver.h **** 
  17:../Libraries/AQ_Receiver/Receiver.h ****   You should have received a copy of the GNU General Public License 
  18:../Libraries/AQ_Receiver/Receiver.h ****   along with this program. If not, see <http://www.gnu.org/licenses/>. 
  19:../Libraries/AQ_Receiver/Receiver.h **** */
  20:../Libraries/AQ_Receiver/Receiver.h **** 
  21:../Libraries/AQ_Receiver/Receiver.h **** #ifndef _AEROQUAD_RECEIVER_H_
  22:../Libraries/AQ_Receiver/Receiver.h **** #define _AEROQUAD_RECEIVER_H_
  23:../Libraries/AQ_Receiver/Receiver.h **** 
  24:../Libraries/AQ_Receiver/Receiver.h **** #include "Arduino.h"
  25:../Libraries/AQ_Receiver/Receiver.h **** 
  26:../Libraries/AQ_Receiver/Receiver.h **** #define PWM2RAD 0.002 //  Based upon 5RAD for full stick movement, you take this times the RAD to g
  27:../Libraries/AQ_Receiver/Receiver.h **** 
  28:../Libraries/AQ_Receiver/Receiver.h **** // Receiver variables
  29:../Libraries/AQ_Receiver/Receiver.h **** #define TIMEOUT 25000
  30:../Libraries/AQ_Receiver/Receiver.h **** #define MINCOMMAND 1000
  31:../Libraries/AQ_Receiver/Receiver.h **** #define MIDCOMMAND 1500
  32:../Libraries/AQ_Receiver/Receiver.h **** #define MAXCOMMAND 2000
  33:../Libraries/AQ_Receiver/Receiver.h **** #define MINDELTA 200
  34:../Libraries/AQ_Receiver/Receiver.h **** #define MINCHECK MINCOMMAND + 100
  35:../Libraries/AQ_Receiver/Receiver.h **** #define MAXCHECK MAXCOMMAND - 100
  36:../Libraries/AQ_Receiver/Receiver.h **** #define MINTHROTTLE MINCOMMAND + 100
  37:../Libraries/AQ_Receiver/Receiver.h **** #define LEVELOFF 100
  38:../Libraries/AQ_Receiver/Receiver.h **** #define MAX_NB_CHANNEL 8
  39:../Libraries/AQ_Receiver/Receiver.h **** 
  40:../Libraries/AQ_Receiver/Receiver.h **** int lastReceiverChannel = 0;
  41:../Libraries/AQ_Receiver/Receiver.h **** 
  42:../Libraries/AQ_Receiver/Receiver.h **** float receiverXmitFactor = 0.0;
  43:../Libraries/AQ_Receiver/Receiver.h **** int receiverData[MAX_NB_CHANNEL] = {0,0,0,0,0,0,0,0};
  44:../Libraries/AQ_Receiver/Receiver.h **** int receiverZero[3] = {0,0,0};
  45:../Libraries/AQ_Receiver/Receiver.h **** int receiverCommand[MAX_NB_CHANNEL] = {0,0,0,0,0,0,0,0};
  46:../Libraries/AQ_Receiver/Receiver.h **** int receiverCommandSmooth[MAX_NB_CHANNEL] = {0,0,0,0,0,0,0,0};
  47:../Libraries/AQ_Receiver/Receiver.h **** float receiverSlope[MAX_NB_CHANNEL] = {0.0,0.0,0.0,0.0,0.0,0.0,0.0,0.0};
  48:../Libraries/AQ_Receiver/Receiver.h **** float receiverOffset[MAX_NB_CHANNEL] = {0.0,0.0,0.0,0.0,0.0,0.0,0.0,0.0};
  49:../Libraries/AQ_Receiver/Receiver.h **** float receiverSmoothFactor[MAX_NB_CHANNEL] = {0.0,0.0,0.0,0.0,0.0,0.0,0.0,0.0};
  50:../Libraries/AQ_Receiver/Receiver.h **** int channelCal;
  51:../Libraries/AQ_Receiver/Receiver.h **** 
  52:../Libraries/AQ_Receiver/Receiver.h **** void initializeReceiverParam(int nbChannel = 6) {
 401              		.loc 7 52 0
 402              		.cfi_startproc
 403              		@ args = 0, pretend = 0, frame = 0
 404              		@ frame_needed = 0, uses_anonymous_args = 0
 405              		@ link register save eliminated.
 406              	.LVL21:
 407              	.LBB22:
  53:../Libraries/AQ_Receiver/Receiver.h ****   
  54:../Libraries/AQ_Receiver/Receiver.h ****   lastReceiverChannel = nbChannel;
 408              		.loc 7 54 0
 409 0000 244A     		ldr	r2, .L40
  55:../Libraries/AQ_Receiver/Receiver.h **** 
  56:../Libraries/AQ_Receiver/Receiver.h ****   receiverCommand[XAXIS] = 1500;
 410              		.loc 7 56 0
 411 0002 254B     		ldr	r3, .L40+4
  54:../Libraries/AQ_Receiver/Receiver.h ****   lastReceiverChannel = nbChannel;
 412              		.loc 7 54 0
 413 0004 1060     		str	r0, [r2, #0]
 414              		.loc 7 56 0
 415 0006 40F2DC51 		movw	r1, #1500
  57:../Libraries/AQ_Receiver/Receiver.h ****   receiverCommand[YAXIS] = 1500;
  58:../Libraries/AQ_Receiver/Receiver.h ****   receiverCommand[ZAXIS] = 1500;
  59:../Libraries/AQ_Receiver/Receiver.h ****   receiverCommand[THROTTLE] = 1000;
 416              		.loc 7 59 0
 417 000a 4FF47A72 		mov	r2, #1000
  56:../Libraries/AQ_Receiver/Receiver.h ****   receiverCommand[XAXIS] = 1500;
 418              		.loc 7 56 0
 419 000e 1960     		str	r1, [r3, #0]
  57:../Libraries/AQ_Receiver/Receiver.h ****   receiverCommand[YAXIS] = 1500;
 420              		.loc 7 57 0
 421 0010 5960     		str	r1, [r3, #4]
  58:../Libraries/AQ_Receiver/Receiver.h ****   receiverCommand[ZAXIS] = 1500;
 422              		.loc 7 58 0
 423 0012 9960     		str	r1, [r3, #8]
 424              		.loc 7 59 0
 425 0014 DA60     		str	r2, [r3, #12]
  60:../Libraries/AQ_Receiver/Receiver.h ****   receiverCommand[MODE] = 1000;
 426              		.loc 7 60 0
 427 0016 1A61     		str	r2, [r3, #16]
  61:../Libraries/AQ_Receiver/Receiver.h ****   receiverCommand[AUX1] = 1000;
 428              		.loc 7 61 0
 429 0018 5A61     		str	r2, [r3, #20]
  62:../Libraries/AQ_Receiver/Receiver.h ****   receiverCommand[AUX2] = 1000;
 430              		.loc 7 62 0
 431 001a 9A61     		str	r2, [r3, #24]
  63:../Libraries/AQ_Receiver/Receiver.h ****   receiverCommand[AUX3] = 1000;
 432              		.loc 7 63 0
 433 001c DA61     		str	r2, [r3, #28]
 434              	.LVL22:
 435              	.LBB23:
  64:../Libraries/AQ_Receiver/Receiver.h ****   
  65:../Libraries/AQ_Receiver/Receiver.h ****   for (byte channel = XAXIS; channel < lastReceiverChannel; channel++) {
 436              		.loc 7 65 0
 437 001e 0023     		movs	r3, #0
 438 0020 07E0     		b	.L32
 439              	.LVL23:
 440              	.L33:
  66:../Libraries/AQ_Receiver/Receiver.h ****     receiverCommandSmooth[channel] = 1.0;
 441              		.loc 7 66 0 discriminator 2
 442 0022 0121     		movs	r1, #1
 443 0024 1D4A     		ldr	r2, .L40+8
  65:../Libraries/AQ_Receiver/Receiver.h ****   for (byte channel = XAXIS; channel < lastReceiverChannel; channel++) {
 444              		.loc 7 65 0 discriminator 2
 445 0026 03EB010C 		add	ip, r3, r1
 446              		.loc 7 66 0 discriminator 2
 447 002a 42F82310 		str	r1, [r2, r3, lsl #2]
  65:../Libraries/AQ_Receiver/Receiver.h ****   for (byte channel = XAXIS; channel < lastReceiverChannel; channel++) {
 448              		.loc 7 65 0 discriminator 2
 449 002e 5FFA8CF3 		uxtb	r3, ip
 450              	.LVL24:
 451              	.L32:
  65:../Libraries/AQ_Receiver/Receiver.h ****   for (byte channel = XAXIS; channel < lastReceiverChannel; channel++) {
 452              		.loc 7 65 0 is_stmt 0 discriminator 1
 453 0032 8342     		cmp	r3, r0
 454 0034 F5DB     		blt	.L33
 455              	.LVL25:
 456              	.LBE23:
 457              	.LBB24:
  67:../Libraries/AQ_Receiver/Receiver.h ****   }
  68:../Libraries/AQ_Receiver/Receiver.h ****   for (byte channel = XAXIS; channel < THROTTLE; channel++) {
  69:../Libraries/AQ_Receiver/Receiver.h ****     receiverZero[channel] = 1500;
 458              		.loc 7 69 0 is_stmt 1 discriminator 1
 459 0036 1A4B     		ldr	r3, .L40+12
 460              	.LVL26:
 461 0038 40F2DC51 		movw	r1, #1500
 462 003c 1960     		str	r1, [r3, #0]
 463              	.LVL27:
 464 003e 5960     		str	r1, [r3, #4]
 465              	.LVL28:
 466 0040 9960     		str	r1, [r3, #8]
 467              	.LVL29:
 468 0042 0023     		movs	r3, #0
 469 0044 08E0     		b	.L34
 470              	.LVL30:
 471              	.L35:
 472              	.LBE24:
 473              	.LBB25:
  70:../Libraries/AQ_Receiver/Receiver.h ****   }
  71:../Libraries/AQ_Receiver/Receiver.h **** 	
  72:../Libraries/AQ_Receiver/Receiver.h ****   for (byte channel = XAXIS; channel < lastReceiverChannel; channel++) {
  73:../Libraries/AQ_Receiver/Receiver.h ****     receiverSlope[channel] = 1;
 474              		.loc 7 73 0 discriminator 2
 475 0046 174A     		ldr	r2, .L40+16
 476 0048 02EB8301 		add	r1, r2, r3, lsl #2
 477 004c 4FF07E5C 		mov	ip, #1065353216
  72:../Libraries/AQ_Receiver/Receiver.h ****   for (byte channel = XAXIS; channel < lastReceiverChannel; channel++) {
 478              		.loc 7 72 0 discriminator 2
 479 0050 5A1C     		adds	r2, r3, #1
 480              		.loc 7 73 0 discriminator 2
 481 0052 C1F800C0 		str	ip, [r1, #0]	@ float
  72:../Libraries/AQ_Receiver/Receiver.h ****   for (byte channel = XAXIS; channel < lastReceiverChannel; channel++) {
 482              		.loc 7 72 0 discriminator 2
 483 0056 D3B2     		uxtb	r3, r2
 484              	.LVL31:
 485              	.L34:
  72:../Libraries/AQ_Receiver/Receiver.h ****   for (byte channel = XAXIS; channel < lastReceiverChannel; channel++) {
 486              		.loc 7 72 0 is_stmt 0 discriminator 1
 487 0058 8342     		cmp	r3, r0
 488 005a F4DB     		blt	.L35
  72:../Libraries/AQ_Receiver/Receiver.h ****   for (byte channel = XAXIS; channel < lastReceiverChannel; channel++) {
 489              		.loc 7 72 0
 490 005c 0023     		movs	r3, #0
 491              	.LVL32:
 492 005e 08E0     		b	.L36
 493              	.LVL33:
 494              	.L37:
 495              	.LBE25:
 496              	.LBB26:
  74:../Libraries/AQ_Receiver/Receiver.h ****   }	
  75:../Libraries/AQ_Receiver/Receiver.h ****   for (byte channel = XAXIS; channel < lastReceiverChannel; channel++) {
  76:../Libraries/AQ_Receiver/Receiver.h ****     receiverOffset[channel] = 1;
 497              		.loc 7 76 0 is_stmt 1 discriminator 2
 498 0060 114A     		ldr	r2, .L40+20
 499 0062 02EB8301 		add	r1, r2, r3, lsl #2
 500 0066 4FF07E5C 		mov	ip, #1065353216
  75:../Libraries/AQ_Receiver/Receiver.h ****   for (byte channel = XAXIS; channel < lastReceiverChannel; channel++) {
 501              		.loc 7 75 0 discriminator 2
 502 006a 0133     		adds	r3, r3, #1
 503              	.LVL34:
 504              		.loc 7 76 0 discriminator 2
 505 006c C1F800C0 		str	ip, [r1, #0]	@ float
  75:../Libraries/AQ_Receiver/Receiver.h ****   for (byte channel = XAXIS; channel < lastReceiverChannel; channel++) {
 506              		.loc 7 75 0 discriminator 2
 507 0070 DBB2     		uxtb	r3, r3
 508              	.LVL35:
 509              	.L36:
  75:../Libraries/AQ_Receiver/Receiver.h ****   for (byte channel = XAXIS; channel < lastReceiverChannel; channel++) {
 510              		.loc 7 75 0 is_stmt 0 discriminator 1
 511 0072 8342     		cmp	r3, r0
 512 0074 F4DB     		blt	.L37
  75:../Libraries/AQ_Receiver/Receiver.h ****   for (byte channel = XAXIS; channel < lastReceiverChannel; channel++) {
 513              		.loc 7 75 0
 514 0076 0023     		movs	r3, #0
 515              	.LVL36:
 516 0078 08E0     		b	.L38
 517              	.LVL37:
 518              	.L39:
 519              	.LBE26:
 520              	.LBB27:
  77:../Libraries/AQ_Receiver/Receiver.h ****   }
  78:../Libraries/AQ_Receiver/Receiver.h ****   for (byte channel = XAXIS; channel < lastReceiverChannel; channel++) {
  79:../Libraries/AQ_Receiver/Receiver.h ****     receiverSmoothFactor[channel] = 1; 
 521              		.loc 7 79 0 is_stmt 1 discriminator 2
 522 007a 0C4A     		ldr	r2, .L40+24
 523 007c 02EB8301 		add	r1, r2, r3, lsl #2
 524 0080 4FF07E5C 		mov	ip, #1065353216
  78:../Libraries/AQ_Receiver/Receiver.h ****   for (byte channel = XAXIS; channel < lastReceiverChannel; channel++) {
 525              		.loc 7 78 0 discriminator 2
 526 0084 0133     		adds	r3, r3, #1
 527              	.LVL38:
 528              		.loc 7 79 0 discriminator 2
 529 0086 C1F800C0 		str	ip, [r1, #0]	@ float
  78:../Libraries/AQ_Receiver/Receiver.h ****   for (byte channel = XAXIS; channel < lastReceiverChannel; channel++) {
 530              		.loc 7 78 0 discriminator 2
 531 008a DBB2     		uxtb	r3, r3
 532              	.LVL39:
 533              	.L38:
  78:../Libraries/AQ_Receiver/Receiver.h ****   for (byte channel = XAXIS; channel < lastReceiverChannel; channel++) {
 534              		.loc 7 78 0 is_stmt 0 discriminator 1
 535 008c 8342     		cmp	r3, r0
 536 008e F4DB     		blt	.L39
 537              	.LBE27:
 538              	.LBE22:
  80:../Libraries/AQ_Receiver/Receiver.h ****   }
  81:../Libraries/AQ_Receiver/Receiver.h **** }
 539              		.loc 7 81 0 is_stmt 1
 540 0090 7047     		bx	lr
 541              	.L41:
 542 0092 00BF     		.align	2
 543              	.L40:
 544 0094 00000000 		.word	.LANCHOR9
 545 0098 00000000 		.word	.LANCHOR6
 546 009c 00000000 		.word	.LANCHOR10
 547 00a0 00000000 		.word	.LANCHOR11
 548 00a4 00000000 		.word	.LANCHOR12
 549 00a8 00000000 		.word	.LANCHOR13
 550 00ac 00000000 		.word	.LANCHOR14
 551              		.cfi_endproc
 552              	.LFE122:
 554              		.section	.text._Z17getReceiverSIDatah,"ax",%progbits
 555              		.align	1
 556              		.global	_Z17getReceiverSIDatah
 557              		.thumb
 558              		.thumb_func
 560              	_Z17getReceiverSIDatah:
 561              	.LFB124:
  82:../Libraries/AQ_Receiver/Receiver.h ****   
  83:../Libraries/AQ_Receiver/Receiver.h **** int getRawChannelValue(byte channel);  
  84:../Libraries/AQ_Receiver/Receiver.h **** void readReceiver();
  85:../Libraries/AQ_Receiver/Receiver.h ****   
  86:../Libraries/AQ_Receiver/Receiver.h **** void readReceiver()
  87:../Libraries/AQ_Receiver/Receiver.h **** {
  88:../Libraries/AQ_Receiver/Receiver.h ****   for(byte channel = XAXIS; channel < lastReceiverChannel; channel++) {
  89:../Libraries/AQ_Receiver/Receiver.h **** 
  90:../Libraries/AQ_Receiver/Receiver.h ****     // Apply receiver calibration adjustment
  91:../Libraries/AQ_Receiver/Receiver.h ****     receiverData[channel] = (receiverSlope[channel] * getRawChannelValue(channel)) + receiverOffset
  92:../Libraries/AQ_Receiver/Receiver.h ****     // Smooth the flight control receiver inputs
  93:../Libraries/AQ_Receiver/Receiver.h ****     receiverCommandSmooth[channel] = filterSmooth(receiverData[channel], receiverCommandSmooth[chan
  94:../Libraries/AQ_Receiver/Receiver.h ****   }
  95:../Libraries/AQ_Receiver/Receiver.h ****   
  96:../Libraries/AQ_Receiver/Receiver.h ****   // Reduce receiver commands using receiverXmitFactor and center around 1500
  97:../Libraries/AQ_Receiver/Receiver.h ****   for (byte channel = XAXIS; channel < THROTTLE; channel++) {
  98:../Libraries/AQ_Receiver/Receiver.h ****     receiverCommand[channel] = ((receiverCommandSmooth[channel] - receiverZero[channel]) * receiver
  99:../Libraries/AQ_Receiver/Receiver.h ****   }	
 100:../Libraries/AQ_Receiver/Receiver.h ****   // No xmitFactor reduction applied for throttle, mode and AUX
 101:../Libraries/AQ_Receiver/Receiver.h ****   for (byte channel = THROTTLE; channel < lastReceiverChannel; channel++) {
 102:../Libraries/AQ_Receiver/Receiver.h ****     receiverCommand[channel] = receiverCommandSmooth[channel];
 103:../Libraries/AQ_Receiver/Receiver.h ****   }
 104:../Libraries/AQ_Receiver/Receiver.h **** }
 105:../Libraries/AQ_Receiver/Receiver.h **** 
 106:../Libraries/AQ_Receiver/Receiver.h **** 
 107:../Libraries/AQ_Receiver/Receiver.h **** void setChannelValue(byte channel,int value);
 108:../Libraries/AQ_Receiver/Receiver.h ****   
 109:../Libraries/AQ_Receiver/Receiver.h **** // return the smoothed & scaled number of radians/sec in stick movement - zero centered
 110:../Libraries/AQ_Receiver/Receiver.h **** const float getReceiverSIData(byte channel) {
 562              		.loc 7 110 0
 563              		.cfi_startproc
 564              		@ args = 0, pretend = 0, frame = 0
 565              		@ frame_needed = 0, uses_anonymous_args = 0
 566              		@ link register save eliminated.
 567              	.LVL40:
 111:../Libraries/AQ_Receiver/Receiver.h ****   return ((receiverCommand[channel] - receiverZero[channel]) * (2.5 * PWM2RAD));  // +/- 2.5RPS 50%
 568              		.loc 7 111 0
 569 0000 0849     		ldr	r1, .L43
 570 0002 094B     		ldr	r3, .L43+4
 571 0004 51F82020 		ldr	r2, [r1, r0, lsl #2]
 572 0008 53F82010 		ldr	r1, [r3, r0, lsl #2]
 573 000c 531A     		subs	r3, r2, r1
 574 000e 00EE103A 		fmsr	s0, r3	@ int
 112:../Libraries/AQ_Receiver/Receiver.h **** }
 575              		.loc 7 112 0
 576 0012 DFED067A 		flds	s15, .L43+8
 111:../Libraries/AQ_Receiver/Receiver.h ****   return ((receiverCommand[channel] - receiverZero[channel]) * (2.5 * PWM2RAD));  // +/- 2.5RPS 50%
 577              		.loc 7 111 0
 578 0016 B8EEC07A 		fsitos	s14, s0
 579              		.loc 7 112 0
 580 001a 67EE276A 		fmuls	s13, s14, s15
 581 001e 16EE900A 		fmrs	r0, s13
 582              	.LVL41:
 583 0022 7047     		bx	lr
 584              	.L44:
 585              		.align	2
 586              	.L43:
 587 0024 00000000 		.word	.LANCHOR6
 588 0028 00000000 		.word	.LANCHOR11
 589 002c 0BD7A33B 		.word	1000593163
 590              		.cfi_endproc
 591              	.LFE124:
 593              		.section	.text._Z9updatePIDffP7PIDdata,"ax",%progbits
 594              		.align	1
 595              		.global	_Z9updatePIDffP7PIDdata
 596              		.thumb
 597              		.thumb_func
 599              	_Z9updatePIDffP7PIDdata:
 600              	.LFB125:
 601              		.file 8 "C:/MinGW/msys/1.0/home/LordHahn/AeroQuad32/../AeroQuad/PID.h"
   1:C:/MinGW/msys/1.0/home/LordHahn/AeroQuad32/../AeroQuad\PID.h **** /*
   2:C:/MinGW/msys/1.0/home/LordHahn/AeroQuad32/../AeroQuad\PID.h ****   AeroQuad v3.0.1 - February 2012
   3:C:/MinGW/msys/1.0/home/LordHahn/AeroQuad32/../AeroQuad\PID.h ****   www.AeroQuad.com
   4:C:/MinGW/msys/1.0/home/LordHahn/AeroQuad32/../AeroQuad\PID.h ****   Copyright (c) 2012 Ted Carancho.  All rights reserved.
   5:C:/MinGW/msys/1.0/home/LordHahn/AeroQuad32/../AeroQuad\PID.h ****   An Open Source Arduino based multicopter.
   6:C:/MinGW/msys/1.0/home/LordHahn/AeroQuad32/../AeroQuad\PID.h ****  
   7:C:/MinGW/msys/1.0/home/LordHahn/AeroQuad32/../AeroQuad\PID.h ****   This program is free software: you can redistribute it and/or modify 
   8:C:/MinGW/msys/1.0/home/LordHahn/AeroQuad32/../AeroQuad\PID.h ****   it under the terms of the GNU General Public License as published by 
   9:C:/MinGW/msys/1.0/home/LordHahn/AeroQuad32/../AeroQuad\PID.h ****   the Free Software Foundation, either version 3 of the License, or 
  10:C:/MinGW/msys/1.0/home/LordHahn/AeroQuad32/../AeroQuad\PID.h ****   (at your option) any later version. 
  11:C:/MinGW/msys/1.0/home/LordHahn/AeroQuad32/../AeroQuad\PID.h **** 
  12:C:/MinGW/msys/1.0/home/LordHahn/AeroQuad32/../AeroQuad\PID.h ****   This program is distributed in the hope that it will be useful, 
  13:C:/MinGW/msys/1.0/home/LordHahn/AeroQuad32/../AeroQuad\PID.h ****   but WITHOUT ANY WARRANTY; without even the implied warranty of 
  14:C:/MinGW/msys/1.0/home/LordHahn/AeroQuad32/../AeroQuad\PID.h ****   MERCHANTABILITY or FITNESS FOR A PARTICULAR PURPOSE. See the 
  15:C:/MinGW/msys/1.0/home/LordHahn/AeroQuad32/../AeroQuad\PID.h ****   GNU General Public License for more details. 
  16:C:/MinGW/msys/1.0/home/LordHahn/AeroQuad32/../AeroQuad\PID.h **** 
  17:C:/MinGW/msys/1.0/home/LordHahn/AeroQuad32/../AeroQuad\PID.h ****   You should have received a copy of the GNU General Public License 
  18:C:/MinGW/msys/1.0/home/LordHahn/AeroQuad32/../AeroQuad\PID.h ****   along with this program. If not, see <http://www.gnu.org/licenses/>. 
  19:C:/MinGW/msys/1.0/home/LordHahn/AeroQuad32/../AeroQuad\PID.h **** */
  20:C:/MinGW/msys/1.0/home/LordHahn/AeroQuad32/../AeroQuad\PID.h **** 
  21:C:/MinGW/msys/1.0/home/LordHahn/AeroQuad32/../AeroQuad\PID.h **** #ifndef _AQ_PID_H_
  22:C:/MinGW/msys/1.0/home/LordHahn/AeroQuad32/../AeroQuad\PID.h **** #define _AQ_PID_H_
  23:C:/MinGW/msys/1.0/home/LordHahn/AeroQuad32/../AeroQuad\PID.h **** 
  24:C:/MinGW/msys/1.0/home/LordHahn/AeroQuad32/../AeroQuad\PID.h **** enum {
  25:C:/MinGW/msys/1.0/home/LordHahn/AeroQuad32/../AeroQuad\PID.h ****   RATE_XAXIS_PID_IDX = 0,
  26:C:/MinGW/msys/1.0/home/LordHahn/AeroQuad32/../AeroQuad\PID.h ****   RATE_YAXIS_PID_IDX,
  27:C:/MinGW/msys/1.0/home/LordHahn/AeroQuad32/../AeroQuad\PID.h ****   ZAXIS_PID_IDX,
  28:C:/MinGW/msys/1.0/home/LordHahn/AeroQuad32/../AeroQuad\PID.h ****   ATTITUDE_XAXIS_PID_IDX,
  29:C:/MinGW/msys/1.0/home/LordHahn/AeroQuad32/../AeroQuad\PID.h ****   ATTITUDE_YAXIS_PID_IDX,
  30:C:/MinGW/msys/1.0/home/LordHahn/AeroQuad32/../AeroQuad\PID.h ****   HEADING_HOLD_PID_IDX,
  31:C:/MinGW/msys/1.0/home/LordHahn/AeroQuad32/../AeroQuad\PID.h ****   ATTITUDE_GYRO_XAXIS_PID_IDX,
  32:C:/MinGW/msys/1.0/home/LordHahn/AeroQuad32/../AeroQuad\PID.h ****   ATTITUDE_GYRO_YAXIS_PID_IDX,
  33:C:/MinGW/msys/1.0/home/LordHahn/AeroQuad32/../AeroQuad\PID.h ****   #if defined AltitudeHoldBaro || defined AltitudeHoldRangeFinder
  34:C:/MinGW/msys/1.0/home/LordHahn/AeroQuad32/../AeroQuad\PID.h ****     BARO_ALTITUDE_HOLD_PID_IDX,
  35:C:/MinGW/msys/1.0/home/LordHahn/AeroQuad32/../AeroQuad\PID.h ****     ZDAMPENING_PID_IDX,
  36:C:/MinGW/msys/1.0/home/LordHahn/AeroQuad32/../AeroQuad\PID.h ****   #endif
  37:C:/MinGW/msys/1.0/home/LordHahn/AeroQuad32/../AeroQuad\PID.h ****   #if defined AltitudeHoldRangeFinder
  38:C:/MinGW/msys/1.0/home/LordHahn/AeroQuad32/../AeroQuad\PID.h ****     SONAR_ALTITUDE_HOLD_PID_IDX,
  39:C:/MinGW/msys/1.0/home/LordHahn/AeroQuad32/../AeroQuad\PID.h ****   #endif
  40:C:/MinGW/msys/1.0/home/LordHahn/AeroQuad32/../AeroQuad\PID.h ****   #if defined UseGPSNavigator
  41:C:/MinGW/msys/1.0/home/LordHahn/AeroQuad32/../AeroQuad\PID.h ****     GPSPITCH_PID_IDX,
  42:C:/MinGW/msys/1.0/home/LordHahn/AeroQuad32/../AeroQuad\PID.h ****     GPSROLL_PID_IDX,
  43:C:/MinGW/msys/1.0/home/LordHahn/AeroQuad32/../AeroQuad\PID.h ****     GPSYAW_PID_IDX,
  44:C:/MinGW/msys/1.0/home/LordHahn/AeroQuad32/../AeroQuad\PID.h ****   #endif    
  45:C:/MinGW/msys/1.0/home/LordHahn/AeroQuad32/../AeroQuad\PID.h **** 
  46:C:/MinGW/msys/1.0/home/LordHahn/AeroQuad32/../AeroQuad\PID.h ****   LAST_PID_IDX  // keep this definition at the end of this enum
  47:C:/MinGW/msys/1.0/home/LordHahn/AeroQuad32/../AeroQuad\PID.h **** };
  48:C:/MinGW/msys/1.0/home/LordHahn/AeroQuad32/../AeroQuad\PID.h **** 
  49:C:/MinGW/msys/1.0/home/LordHahn/AeroQuad32/../AeroQuad\PID.h **** //// PID Variables
  50:C:/MinGW/msys/1.0/home/LordHahn/AeroQuad32/../AeroQuad\PID.h **** struct PIDdata {
  51:C:/MinGW/msys/1.0/home/LordHahn/AeroQuad32/../AeroQuad\PID.h ****   float P, I, D;
  52:C:/MinGW/msys/1.0/home/LordHahn/AeroQuad32/../AeroQuad\PID.h ****   float lastError;
  53:C:/MinGW/msys/1.0/home/LordHahn/AeroQuad32/../AeroQuad\PID.h ****   // AKA experiments with PID
  54:C:/MinGW/msys/1.0/home/LordHahn/AeroQuad32/../AeroQuad\PID.h ****   float previousPIDTime;
  55:C:/MinGW/msys/1.0/home/LordHahn/AeroQuad32/../AeroQuad\PID.h ****   float integratedError;
  56:C:/MinGW/msys/1.0/home/LordHahn/AeroQuad32/../AeroQuad\PID.h ****   float windupGuard; // Thinking about having individual wind up guards for each PID
  57:C:/MinGW/msys/1.0/home/LordHahn/AeroQuad32/../AeroQuad\PID.h **** } PID[LAST_PID_IDX];
  58:C:/MinGW/msys/1.0/home/LordHahn/AeroQuad32/../AeroQuad\PID.h **** 
  59:C:/MinGW/msys/1.0/home/LordHahn/AeroQuad32/../AeroQuad\PID.h **** // This struct above declares the variable PID[] to hold each of the PID values for various functio
  60:C:/MinGW/msys/1.0/home/LordHahn/AeroQuad32/../AeroQuad\PID.h **** // The following constants are declared in AeroQuad.h
  61:C:/MinGW/msys/1.0/home/LordHahn/AeroQuad32/../AeroQuad\PID.h **** // ROLL = 0, PITCH = 1, YAW = 2 (used for Arcobatic Mode, gyros only)
  62:C:/MinGW/msys/1.0/home/LordHahn/AeroQuad32/../AeroQuad\PID.h **** // ROLLLEVEL = 3, PITCHLEVEL = 4, LEVELGYROROLL = 6, LEVELGYROPITCH = 7 (used for Stable Mode, acce
  63:C:/MinGW/msys/1.0/home/LordHahn/AeroQuad32/../AeroQuad\PID.h **** // HEADING = 5 (used for heading hold)
  64:C:/MinGW/msys/1.0/home/LordHahn/AeroQuad32/../AeroQuad\PID.h **** // ALTITUDE = 8 (used for altitude hold)
  65:C:/MinGW/msys/1.0/home/LordHahn/AeroQuad32/../AeroQuad\PID.h **** // ZDAMPENING = 9 (used in altitude hold to dampen vertical accelerations)
  66:C:/MinGW/msys/1.0/home/LordHahn/AeroQuad32/../AeroQuad\PID.h **** float windupGuard; // Read in from EEPROM
  67:C:/MinGW/msys/1.0/home/LordHahn/AeroQuad32/../AeroQuad\PID.h **** //// Modified from http://www.arduino.cc/playground/Main/BarebonesPIDForEspresso
  68:C:/MinGW/msys/1.0/home/LordHahn/AeroQuad32/../AeroQuad\PID.h **** float updatePID(float targetPosition, float currentPosition, struct PIDdata *PIDparameters) {
 602              		.loc 8 68 0
 603              		.cfi_startproc
 604              		@ args = 0, pretend = 0, frame = 0
 605              		@ frame_needed = 0, uses_anonymous_args = 0
 606              		@ link register save eliminated.
 607              	.LVL42:
 608              	.LBB28:
  69:C:/MinGW/msys/1.0/home/LordHahn/AeroQuad32/../AeroQuad\PID.h **** 
  70:C:/MinGW/msys/1.0/home/LordHahn/AeroQuad32/../AeroQuad\PID.h ****   // AKA PID experiments
  71:C:/MinGW/msys/1.0/home/LordHahn/AeroQuad32/../AeroQuad\PID.h ****   const float deltaPIDTime = (currentTime - PIDparameters->previousPIDTime) / 1000000.0;
 609              		.loc 8 71 0
 610 0000 2A4B     		ldr	r3, .L52
 611              	.LBE28:
  68:C:/MinGW/msys/1.0/home/LordHahn/AeroQuad32/../AeroQuad\PID.h **** float updatePID(float targetPosition, float currentPosition, struct PIDdata *PIDparameters) {
 612              		.loc 8 68 0
 613 0002 07EE101A 		fmsr	s14, r1
 614              	.LBB29:
 615              		.loc 8 71 0
 616 0006 1968     		ldr	r1, [r3, #0]
 617              	.LVL43:
 618 0008 01EE101A 		fmsr	s2, r1	@ int
 619 000c D2ED040A 		flds	s1, [r2, #16]
 620 0010 B8EE410A 		fuitos	s0, s2
  72:C:/MinGW/msys/1.0/home/LordHahn/AeroQuad32/../AeroQuad\PID.h **** 
  73:C:/MinGW/msys/1.0/home/LordHahn/AeroQuad32/../AeroQuad\PID.h ****   PIDparameters->previousPIDTime = currentTime;  // AKA PID experiments
  74:C:/MinGW/msys/1.0/home/LordHahn/AeroQuad32/../AeroQuad\PID.h ****   float error = targetPosition - currentPosition;
 621              		.loc 8 74 0
 622 0014 07EE900A 		fmsr	s15, r0
  75:C:/MinGW/msys/1.0/home/LordHahn/AeroQuad32/../AeroQuad\PID.h **** 
  76:C:/MinGW/msys/1.0/home/LordHahn/AeroQuad32/../AeroQuad\PID.h ****   if (inFlight) {
 623              		.loc 8 76 0
 624 0018 2548     		ldr	r0, .L52+4
 625              	.LVL44:
  71:C:/MinGW/msys/1.0/home/LordHahn/AeroQuad32/../AeroQuad\PID.h ****   const float deltaPIDTime = (currentTime - PIDparameters->previousPIDTime) / 1000000.0;
 626              		.loc 8 71 0
 627 001a 30EE606A 		fsubs	s12, s0, s1
 628 001e DFED256A 		flds	s13, .L52+8
 629              		.loc 8 76 0
 630 0022 0378     		ldrb	r3, [r0, #0]	@ zero_extendqisi2
  71:C:/MinGW/msys/1.0/home/LordHahn/AeroQuad32/../AeroQuad\PID.h ****   const float deltaPIDTime = (currentTime - PIDparameters->previousPIDTime) / 1000000.0;
 631              		.loc 8 71 0
 632 0024 86EE265A 		fdivs	s10, s12, s13
 633              	.LVL45:
  73:C:/MinGW/msys/1.0/home/LordHahn/AeroQuad32/../AeroQuad\PID.h ****   PIDparameters->previousPIDTime = currentTime;  // AKA PID experiments
 634              		.loc 8 73 0
 635 0028 82ED040A 		fsts	s0, [r2, #16]
  74:C:/MinGW/msys/1.0/home/LordHahn/AeroQuad32/../AeroQuad\PID.h ****   float error = targetPosition - currentPosition;
 636              		.loc 8 74 0
 637 002c 77EEC75A 		fsubs	s11, s15, s14
 638              	.LVL46:
 639              		.loc 8 76 0
 640 0030 33B1     		cbz	r3, .L46
  77:C:/MinGW/msys/1.0/home/LordHahn/AeroQuad32/../AeroQuad\PID.h ****     PIDparameters->integratedError += error * deltaPIDTime;
 641              		.loc 8 77 0
 642 0032 D2ED051A 		flds	s3, [r2, #20]
 643 0036 45EE851A 		fmacs	s3, s11, s10
 644 003a C2ED051A 		fsts	s3, [r2, #20]
 645 003e 01E0     		b	.L47
 646              	.L46:
  78:C:/MinGW/msys/1.0/home/LordHahn/AeroQuad32/../AeroQuad\PID.h ****   }
  79:C:/MinGW/msys/1.0/home/LordHahn/AeroQuad32/../AeroQuad\PID.h ****   else {
  80:C:/MinGW/msys/1.0/home/LordHahn/AeroQuad32/../AeroQuad\PID.h ****     PIDparameters->integratedError = 0.0;
 647              		.loc 8 80 0
 648 0040 0020     		movs	r0, #0
 649 0042 5061     		str	r0, [r2, #20]	@ float
 650              	.L47:
  81:C:/MinGW/msys/1.0/home/LordHahn/AeroQuad32/../AeroQuad\PID.h ****   }
  82:C:/MinGW/msys/1.0/home/LordHahn/AeroQuad32/../AeroQuad\PID.h ****   PIDparameters->integratedError = constrain(PIDparameters->integratedError, -PIDparameters->windup
 651              		.loc 8 82 0
 652 0044 D2ED066A 		flds	s13, [r2, #24]
 653 0048 92ED056A 		flds	s12, [r2, #20]
 654 004c F1EE667A 		fnegs	s15, s13
 655              	.LVL47:
 656 0050 B4EEE76A 		fcmpes	s12, s15
 657 0054 F1EE10FA 		fmstat
 658 0058 08D4     		bmi	.L48
 659              		.loc 8 82 0 is_stmt 0 discriminator 2
 660 005a B4EE666A 		fcmps	s12, s13
 661 005e F1EE10FA 		fmstat
 662 0062 CCBF     		ite	gt
 663 0064 F0EE667A 		fcpysgt	s15, s13
 664 0068 F0EE467A 		fcpysle	s15, s12
 665              	.L48:
  83:C:/MinGW/msys/1.0/home/LordHahn/AeroQuad32/../AeroQuad\PID.h ****   float dTerm = PIDparameters->D * (currentPosition - PIDparameters->lastError) / (deltaPIDTime * 1
 666              		.loc 8 83 0 is_stmt 1 discriminator 6
 667 006c D2ED034A 		flds	s9, [r2, #12]
 668 0070 92ED024A 		flds	s8, [r2, #8]
 669 0074 77EE643A 		fsubs	s7, s14, s9
 670 0078 DFED0F2A 		flds	s5, .L52+12
 671 007c 63EE843A 		fmuls	s7, s7, s8
 672 0080 65EE222A 		fmuls	s5, s10, s5
  84:C:/MinGW/msys/1.0/home/LordHahn/AeroQuad32/../AeroQuad\PID.h ****   PIDparameters->lastError = currentPosition;
  85:C:/MinGW/msys/1.0/home/LordHahn/AeroQuad32/../AeroQuad\PID.h **** 
  86:C:/MinGW/msys/1.0/home/LordHahn/AeroQuad32/../AeroQuad\PID.h ****   return (PIDparameters->P * error) + (PIDparameters->I * PIDparameters->integratedError) + dTerm;
 673              		.loc 8 86 0 discriminator 6
 674 0084 92ED013A 		flds	s6, [r2, #4]
  83:C:/MinGW/msys/1.0/home/LordHahn/AeroQuad32/../AeroQuad\PID.h ****   float dTerm = PIDparameters->D * (currentPosition - PIDparameters->lastError) / (deltaPIDTime * 1
 675              		.loc 8 83 0 discriminator 6
 676 0088 C3EEA22A 		fdivs	s5, s7, s5
 677              	.LVL48:
  84:C:/MinGW/msys/1.0/home/LordHahn/AeroQuad32/../AeroQuad\PID.h ****   PIDparameters->lastError = currentPosition;
 678              		.loc 8 84 0 discriminator 6
 679 008c 82ED037A 		fsts	s14, [r2, #12]
 680              		.loc 8 86 0 discriminator 6
 681 0090 92ED007A 		flds	s14, [r2, #0]
 682              	.LVL49:
  82:C:/MinGW/msys/1.0/home/LordHahn/AeroQuad32/../AeroQuad\PID.h ****   PIDparameters->integratedError = constrain(PIDparameters->integratedError, -PIDparameters->windup
 683              		.loc 8 82 0 discriminator 6
 684 0094 C2ED057A 		fsts	s15, [r2, #20]
 685              		.loc 8 86 0 discriminator 6
 686 0098 67EE837A 		fmuls	s15, s15, s6
 687 009c 45EE877A 		fmacs	s15, s11, s14
 688              	.LBE29:
  87:C:/MinGW/msys/1.0/home/LordHahn/AeroQuad32/../AeroQuad\PID.h **** }
 689              		.loc 8 87 0 discriminator 6
 690 00a0 37EEA22A 		fadds	s4, s15, s5
 691 00a4 12EE100A 		fmrs	r0, s4
 692 00a8 7047     		bx	lr
 693              	.L53:
 694 00aa 00BF     		.align	2
 695              	.L52:
 696 00ac 00000000 		.word	.LANCHOR15
 697 00b0 00000000 		.word	.LANCHOR16
 698 00b4 00247449 		.word	1232348160
 699 00b8 0000C842 		.word	1120403456
 700              		.cfi_endproc
 701              	.LFE125:
 703              		.section	.text._Z17zeroIntegralErrorv,"ax",%progbits
 704              		.align	1
 705              		.global	_Z17zeroIntegralErrorv
 706              		.thumb
 707              		.thumb_func
 709              	_Z17zeroIntegralErrorv:
 710              	.LFB126:
  88:C:/MinGW/msys/1.0/home/LordHahn/AeroQuad32/../AeroQuad\PID.h **** 
  89:C:/MinGW/msys/1.0/home/LordHahn/AeroQuad32/../AeroQuad\PID.h **** void zeroIntegralError() __attribute__ ((noinline));
  90:C:/MinGW/msys/1.0/home/LordHahn/AeroQuad32/../AeroQuad\PID.h **** void zeroIntegralError() {
 711              		.loc 8 90 0
 712              		.cfi_startproc
 713              		@ args = 0, pretend = 0, frame = 0
 714              		@ frame_needed = 0, uses_anonymous_args = 0
 715              		@ link register save eliminated.
 716              	.LVL50:
 717              	.LBB30:
  91:C:/MinGW/msys/1.0/home/LordHahn/AeroQuad32/../AeroQuad\PID.h ****   for (byte axis = 0; axis <= ATTITUDE_YAXIS_PID_IDX; axis++) {
  92:C:/MinGW/msys/1.0/home/LordHahn/AeroQuad32/../AeroQuad\PID.h ****     PID[axis].integratedError = 0;
  93:C:/MinGW/msys/1.0/home/LordHahn/AeroQuad32/../AeroQuad\PID.h ****     PID[axis].previousPIDTime = currentTime;
 718              		.loc 8 93 0
 719 0000 0C49     		ldr	r1, .L55
  92:C:/MinGW/msys/1.0/home/LordHahn/AeroQuad32/../AeroQuad\PID.h ****     PID[axis].integratedError = 0;
 720              		.loc 8 92 0
 721 0002 0D4B     		ldr	r3, .L55+4
 722              		.loc 8 93 0
 723 0004 0868     		ldr	r0, [r1, #0]
 724 0006 07EE100A 		fmsr	s14, r0	@ int
 725 000a F8EE477A 		fuitos	s15, s14
  92:C:/MinGW/msys/1.0/home/LordHahn/AeroQuad32/../AeroQuad\PID.h ****     PID[axis].integratedError = 0;
 726              		.loc 8 92 0
 727 000e 0022     		movs	r2, #0
 728 0010 5A61     		str	r2, [r3, #20]	@ float
 729              		.loc 8 93 0
 730 0012 C3ED047A 		fsts	s15, [r3, #16]
 731              	.LVL51:
  92:C:/MinGW/msys/1.0/home/LordHahn/AeroQuad32/../AeroQuad\PID.h ****     PID[axis].integratedError = 0;
 732              		.loc 8 92 0
 733 0016 1A63     		str	r2, [r3, #48]	@ float
 734              		.loc 8 93 0
 735 0018 C3ED0B7A 		fsts	s15, [r3, #44]
 736              	.LVL52:
  92:C:/MinGW/msys/1.0/home/LordHahn/AeroQuad32/../AeroQuad\PID.h ****     PID[axis].integratedError = 0;
 737              		.loc 8 92 0
 738 001c DA64     		str	r2, [r3, #76]	@ float
 739              		.loc 8 93 0
 740 001e C3ED127A 		fsts	s15, [r3, #72]
 741              	.LVL53:
  92:C:/MinGW/msys/1.0/home/LordHahn/AeroQuad32/../AeroQuad\PID.h ****     PID[axis].integratedError = 0;
 742              		.loc 8 92 0
 743 0022 9A66     		str	r2, [r3, #104]	@ float
 744              		.loc 8 93 0
 745 0024 C3ED197A 		fsts	s15, [r3, #100]
 746              	.LVL54:
  92:C:/MinGW/msys/1.0/home/LordHahn/AeroQuad32/../AeroQuad\PID.h ****     PID[axis].integratedError = 0;
 747              		.loc 8 92 0
 748 0028 C3F88420 		str	r2, [r3, #132]	@ float
 749              		.loc 8 93 0
 750 002c C3ED207A 		fsts	s15, [r3, #128]
 751              	.LVL55:
 752              	.LBE30:
  94:C:/MinGW/msys/1.0/home/LordHahn/AeroQuad32/../AeroQuad\PID.h ****   }
  95:C:/MinGW/msys/1.0/home/LordHahn/AeroQuad32/../AeroQuad\PID.h **** }
 753              		.loc 8 95 0
 754 0030 7047     		bx	lr
 755              	.L56:
 756 0032 00BF     		.align	2
 757              	.L55:
 758 0034 00000000 		.word	.LANCHOR15
 759 0038 00000000 		.word	.LANCHOR17
 760              		.cfi_endproc
 761              	.LFE126:
 763              		.section	.text._Z18computeFourthOrderfP15fourthOrderData,"ax",%progbits
 764              		.align	1
 765              		.global	_Z18computeFourthOrderfP15fourthOrderData
 766              		.thumb
 767              		.thumb_func
 769              	_Z18computeFourthOrderfP15fourthOrderData:
 770              	.LFB127:
 771              		.file 9 "../Libraries/AQ_Math/FourtOrderFilter.h"
   1:../Libraries/AQ_Math/FourtOrderFilter.h **** /*
   2:../Libraries/AQ_Math/FourtOrderFilter.h ****   AeroQuad v3.0.1 - February 2012
   3:../Libraries/AQ_Math/FourtOrderFilter.h ****   www.AeroQuad.com
   4:../Libraries/AQ_Math/FourtOrderFilter.h ****   Copyright (c) 2012 Ted Carancho.  All rights reserved.
   5:../Libraries/AQ_Math/FourtOrderFilter.h ****   An Open Source Arduino based multicopter.
   6:../Libraries/AQ_Math/FourtOrderFilter.h ****  
   7:../Libraries/AQ_Math/FourtOrderFilter.h ****   This program is free software: you can redistribute it and/or modify 
   8:../Libraries/AQ_Math/FourtOrderFilter.h ****   it under the terms of the GNU General Public License as published by 
   9:../Libraries/AQ_Math/FourtOrderFilter.h ****   the Free Software Foundation, either version 3 of the License, or 
  10:../Libraries/AQ_Math/FourtOrderFilter.h ****   (at your option) any later version. 
  11:../Libraries/AQ_Math/FourtOrderFilter.h **** 
  12:../Libraries/AQ_Math/FourtOrderFilter.h ****   This program is distributed in the hope that it will be useful, 
  13:../Libraries/AQ_Math/FourtOrderFilter.h ****   but WITHOUT ANY WARRANTY; without even the implied warranty of 
  14:../Libraries/AQ_Math/FourtOrderFilter.h ****   MERCHANTABILITY or FITNESS FOR A PARTICULAR PURPOSE. See the 
  15:../Libraries/AQ_Math/FourtOrderFilter.h ****   GNU General Public License for more details. 
  16:../Libraries/AQ_Math/FourtOrderFilter.h **** 
  17:../Libraries/AQ_Math/FourtOrderFilter.h ****   You should have received a copy of the GNU General Public License 
  18:../Libraries/AQ_Math/FourtOrderFilter.h ****   along with this program. If not, see <http://www.gnu.org/licenses/>. 
  19:../Libraries/AQ_Math/FourtOrderFilter.h **** */
  20:../Libraries/AQ_Math/FourtOrderFilter.h **** 
  21:../Libraries/AQ_Math/FourtOrderFilter.h **** #ifndef _AQ_FOURTH_ORDER_FILTER_H_
  22:../Libraries/AQ_Math/FourtOrderFilter.h **** #define _AQ_FOURTH_ORDER_FILTER_H_
  23:../Libraries/AQ_Math/FourtOrderFilter.h **** 
  24:../Libraries/AQ_Math/FourtOrderFilter.h **** ////////////////////////////////////////////////////////////////////////////////
  25:../Libraries/AQ_Math/FourtOrderFilter.h **** //
  26:../Libraries/AQ_Math/FourtOrderFilter.h **** //
  27:../Libraries/AQ_Math/FourtOrderFilter.h **** ////////////////////////////////////////////////////////////////////////////////
  28:../Libraries/AQ_Math/FourtOrderFilter.h **** 
  29:../Libraries/AQ_Math/FourtOrderFilter.h **** #include <GlobalDefined.h>
  30:../Libraries/AQ_Math/FourtOrderFilter.h **** 
  31:../Libraries/AQ_Math/FourtOrderFilter.h **** 
  32:../Libraries/AQ_Math/FourtOrderFilter.h **** struct fourthOrderData
  33:../Libraries/AQ_Math/FourtOrderFilter.h **** {
  34:../Libraries/AQ_Math/FourtOrderFilter.h ****   float  inputTm1,  inputTm2,  inputTm3,  inputTm4;
  35:../Libraries/AQ_Math/FourtOrderFilter.h ****   float outputTm1, outputTm2, outputTm3, outputTm4;
  36:../Libraries/AQ_Math/FourtOrderFilter.h **** } fourthOrder[4];
  37:../Libraries/AQ_Math/FourtOrderFilter.h **** 
  38:../Libraries/AQ_Math/FourtOrderFilter.h **** float computeFourthOrder(float currentInput, struct fourthOrderData *filterParameters)
  39:../Libraries/AQ_Math/FourtOrderFilter.h **** {
 772              		.loc 9 39 0
 773              		.cfi_startproc
 774              		@ args = 0, pretend = 0, frame = 0
 775              		@ frame_needed = 0, uses_anonymous_args = 0
 776              		@ link register save eliminated.
 777              	.LVL56:
 778              	.LBB31:
  40:../Libraries/AQ_Math/FourtOrderFilter.h ****   // cheby2(4,60,12.5/50)
  41:../Libraries/AQ_Math/FourtOrderFilter.h ****   #define _b0  0.001893594048567
  42:../Libraries/AQ_Math/FourtOrderFilter.h ****   #define _b1 -0.002220262954039
  43:../Libraries/AQ_Math/FourtOrderFilter.h ****   #define _b2  0.003389066536478
  44:../Libraries/AQ_Math/FourtOrderFilter.h ****   #define _b3 -0.002220262954039
  45:../Libraries/AQ_Math/FourtOrderFilter.h ****   #define _b4  0.001893594048567
  46:../Libraries/AQ_Math/FourtOrderFilter.h ****   
  47:../Libraries/AQ_Math/FourtOrderFilter.h ****   #define _a1 -3.362256889209355
  48:../Libraries/AQ_Math/FourtOrderFilter.h ****   #define _a2  4.282608240117919
  49:../Libraries/AQ_Math/FourtOrderFilter.h ****   #define _a3 -2.444765517272841
  50:../Libraries/AQ_Math/FourtOrderFilter.h ****   #define _a4  0.527149895089809
  51:../Libraries/AQ_Math/FourtOrderFilter.h ****   
  52:../Libraries/AQ_Math/FourtOrderFilter.h ****   float output;
  53:../Libraries/AQ_Math/FourtOrderFilter.h ****   
  54:../Libraries/AQ_Math/FourtOrderFilter.h ****   output = _b0 * currentInput                + 
  55:../Libraries/AQ_Math/FourtOrderFilter.h ****            _b1 * filterParameters->inputTm1  + 
  56:../Libraries/AQ_Math/FourtOrderFilter.h ****            _b2 * filterParameters->inputTm2  +
  57:../Libraries/AQ_Math/FourtOrderFilter.h ****            _b3 * filterParameters->inputTm3  +
  58:../Libraries/AQ_Math/FourtOrderFilter.h ****            _b4 * filterParameters->inputTm4  -
  59:../Libraries/AQ_Math/FourtOrderFilter.h ****            _a1 * filterParameters->outputTm1 -
  60:../Libraries/AQ_Math/FourtOrderFilter.h ****            _a2 * filterParameters->outputTm2 -
  61:../Libraries/AQ_Math/FourtOrderFilter.h ****            _a3 * filterParameters->outputTm3 -
  62:../Libraries/AQ_Math/FourtOrderFilter.h ****            _a4 * filterParameters->outputTm4;
 779              		.loc 9 62 0
 780 0000 91ED005A 		flds	s10, [r1, #0]
 781 0004 9FED203A 		flds	s6, .L58
 782              	.LBE31:
  39:../Libraries/AQ_Math/FourtOrderFilter.h **** {
 783              		.loc 9 39 0
 784 0008 05EE900A 		fmsr	s11, r0
 785              	.LBB32:
 786              		.loc 9 62 0
 787 000c 9FED1F2A 		flds	s4, .L58+4
 788 0010 65EE037A 		fmuls	s15, s10, s6
 789 0014 45EE827A 		fmacs	s15, s11, s4
 790 0018 D1ED014A 		flds	s9, [r1, #4]
 791 001c DFED1C2A 		flds	s5, .L58+8
 792 0020 44EEA27A 		fmacs	s15, s9, s5
 793 0024 91ED024A 		flds	s8, [r1, #8]
 794 0028 44EE037A 		fmacs	s15, s8, s6
 795 002c D1ED031A 		flds	s3, [r1, #12]
 796 0030 41EE827A 		fmacs	s15, s3, s4
 797 0034 91ED047A 		flds	s14, [r1, #16]
 798 0038 9FED161A 		flds	s2, .L58+12
 799 003c 47EE017A 		fmacs	s15, s14, s2
 800 0040 D1ED056A 		flds	s13, [r1, #20]
 801 0044 DFED140A 		flds	s1, .L58+16
 802 0048 46EEE07A 		fnmacs	s15, s13, s1
 803 004c 91ED066A 		flds	s12, [r1, #24]
 804 0050 9FED120A 		flds	s0, .L58+20
 805 0054 46EE007A 		fmacs	s15, s12, s0
 806 0058 91ED073A 		flds	s6, [r1, #28]
 807 005c DFED103A 		flds	s7, .L58+24
 808 0060 43EE637A 		fnmacs	s15, s6, s7
 809              	.LVL57:
  63:../Libraries/AQ_Math/FourtOrderFilter.h **** 
  64:../Libraries/AQ_Math/FourtOrderFilter.h ****   filterParameters->inputTm4 = filterParameters->inputTm3;
  65:../Libraries/AQ_Math/FourtOrderFilter.h ****   filterParameters->inputTm3 = filterParameters->inputTm2;
  66:../Libraries/AQ_Math/FourtOrderFilter.h ****   filterParameters->inputTm2 = filterParameters->inputTm1;
  67:../Libraries/AQ_Math/FourtOrderFilter.h ****   filterParameters->inputTm1 = currentInput;
 810              		.loc 9 67 0
 811 0064 0860     		str	r0, [r1, #0]	@ float
  64:../Libraries/AQ_Math/FourtOrderFilter.h ****   filterParameters->inputTm4 = filterParameters->inputTm3;
 812              		.loc 9 64 0
 813 0066 81ED034A 		fsts	s8, [r1, #12]
  65:../Libraries/AQ_Math/FourtOrderFilter.h ****   filterParameters->inputTm3 = filterParameters->inputTm2;
 814              		.loc 9 65 0
 815 006a C1ED024A 		fsts	s9, [r1, #8]
  66:../Libraries/AQ_Math/FourtOrderFilter.h ****   filterParameters->inputTm2 = filterParameters->inputTm1;
 816              		.loc 9 66 0
 817 006e 81ED015A 		fsts	s10, [r1, #4]
  68:../Libraries/AQ_Math/FourtOrderFilter.h ****   
  69:../Libraries/AQ_Math/FourtOrderFilter.h ****   filterParameters->outputTm4 = filterParameters->outputTm3;
 818              		.loc 9 69 0
 819 0072 81ED076A 		fsts	s12, [r1, #28]
  70:../Libraries/AQ_Math/FourtOrderFilter.h ****   filterParameters->outputTm3 = filterParameters->outputTm2;
 820              		.loc 9 70 0
 821 0076 C1ED066A 		fsts	s13, [r1, #24]
  71:../Libraries/AQ_Math/FourtOrderFilter.h ****   filterParameters->outputTm2 = filterParameters->outputTm1;
 822              		.loc 9 71 0
 823 007a 81ED057A 		fsts	s14, [r1, #20]
  72:../Libraries/AQ_Math/FourtOrderFilter.h ****   filterParameters->outputTm1 = output;
 824              		.loc 9 72 0
 825 007e C1ED047A 		fsts	s15, [r1, #16]
 826              	.LBE32:
  73:../Libraries/AQ_Math/FourtOrderFilter.h ****     
  74:../Libraries/AQ_Math/FourtOrderFilter.h ****   return output;
  75:../Libraries/AQ_Math/FourtOrderFilter.h **** }
 827              		.loc 9 75 0
 828 0082 17EE900A 		fmrs	r0, s15
 829              	.LVL58:
 830 0086 7047     		bx	lr
 831              	.L59:
 832              		.align	2
 833              	.L58:
 834 0088 D58111BB 		.word	-1156480555
 835 008c 7932F83A 		.word	989344377
 836 0090 1A1B5E3B 		.word	996023066
 837 0094 382F5740 		.word	1079455544
 838 0098 200B8940 		.word	1082723104
 839 009c 0A771C40 		.word	1075607306
 840 00a0 4CF3063F 		.word	1057420108
 841              		.cfi_endproc
 842              	.LFE127:
 844              		.section	.text._Z16setupFourthOrderv,"ax",%progbits
 845              		.align	1
 846              		.global	_Z16setupFourthOrderv
 847              		.thumb
 848              		.thumb_func
 850              	_Z16setupFourthOrderv:
 851              	.LFB128:
  76:../Libraries/AQ_Math/FourtOrderFilter.h **** 
  77:../Libraries/AQ_Math/FourtOrderFilter.h **** void setupFourthOrder(void)
  78:../Libraries/AQ_Math/FourtOrderFilter.h **** {
 852              		.loc 9 78 0
 853              		.cfi_startproc
 854              		@ args = 0, pretend = 0, frame = 0
 855              		@ frame_needed = 0, uses_anonymous_args = 0
 856              		@ link register save eliminated.
  79:../Libraries/AQ_Math/FourtOrderFilter.h ****   fourthOrder[XAXIS].inputTm1 = 0.0;
 857              		.loc 9 79 0
 858 0000 0D4B     		ldr	r3, .L61
  80:../Libraries/AQ_Math/FourtOrderFilter.h ****   fourthOrder[XAXIS].inputTm2 = 0.0;
  81:../Libraries/AQ_Math/FourtOrderFilter.h ****   fourthOrder[XAXIS].inputTm3 = 0.0;
  82:../Libraries/AQ_Math/FourtOrderFilter.h ****   fourthOrder[XAXIS].inputTm4 = 0.0;
  83:../Libraries/AQ_Math/FourtOrderFilter.h ****   
  84:../Libraries/AQ_Math/FourtOrderFilter.h ****   fourthOrder[XAXIS].outputTm1 = 0.0;
  85:../Libraries/AQ_Math/FourtOrderFilter.h ****   fourthOrder[XAXIS].outputTm2 = 0.0;
  86:../Libraries/AQ_Math/FourtOrderFilter.h ****   fourthOrder[XAXIS].outputTm3 = 0.0;
  87:../Libraries/AQ_Math/FourtOrderFilter.h ****   fourthOrder[XAXIS].outputTm4 = 0.0;
  88:../Libraries/AQ_Math/FourtOrderFilter.h ****   
  89:../Libraries/AQ_Math/FourtOrderFilter.h ****   //////////
  90:../Libraries/AQ_Math/FourtOrderFilter.h ****   fourthOrder[YAXIS].inputTm1 = 0.0;
  91:../Libraries/AQ_Math/FourtOrderFilter.h ****   fourthOrder[YAXIS].inputTm2 = 0.0;
  92:../Libraries/AQ_Math/FourtOrderFilter.h ****   fourthOrder[YAXIS].inputTm3 = 0.0;
  93:../Libraries/AQ_Math/FourtOrderFilter.h ****   fourthOrder[YAXIS].inputTm4 = 0.0;
  94:../Libraries/AQ_Math/FourtOrderFilter.h ****   
  95:../Libraries/AQ_Math/FourtOrderFilter.h ****   fourthOrder[YAXIS].outputTm1 = 0.0;
  96:../Libraries/AQ_Math/FourtOrderFilter.h ****   fourthOrder[YAXIS].outputTm2 = 0.0;
  97:../Libraries/AQ_Math/FourtOrderFilter.h ****   fourthOrder[YAXIS].outputTm3 = 0.0;
  98:../Libraries/AQ_Math/FourtOrderFilter.h ****   fourthOrder[YAXIS].outputTm4 = 0.0;
  99:../Libraries/AQ_Math/FourtOrderFilter.h ****   
 100:../Libraries/AQ_Math/FourtOrderFilter.h ****   //////////
 101:../Libraries/AQ_Math/FourtOrderFilter.h ****   fourthOrder[ZAXIS].inputTm1 = -9.8065;
 859              		.loc 9 101 0
 860 0002 0E4A     		ldr	r2, .L61+4
  79:../Libraries/AQ_Math/FourtOrderFilter.h ****   fourthOrder[XAXIS].inputTm1 = 0.0;
 861              		.loc 9 79 0
 862 0004 0020     		movs	r0, #0
 863 0006 1860     		str	r0, [r3, #0]	@ float
  80:../Libraries/AQ_Math/FourtOrderFilter.h ****   fourthOrder[XAXIS].inputTm2 = 0.0;
 864              		.loc 9 80 0
 865 0008 5860     		str	r0, [r3, #4]	@ float
  81:../Libraries/AQ_Math/FourtOrderFilter.h ****   fourthOrder[XAXIS].inputTm3 = 0.0;
 866              		.loc 9 81 0
 867 000a 9860     		str	r0, [r3, #8]	@ float
  82:../Libraries/AQ_Math/FourtOrderFilter.h ****   fourthOrder[XAXIS].inputTm4 = 0.0;
 868              		.loc 9 82 0
 869 000c D860     		str	r0, [r3, #12]	@ float
  84:../Libraries/AQ_Math/FourtOrderFilter.h ****   fourthOrder[XAXIS].outputTm1 = 0.0;
 870              		.loc 9 84 0
 871 000e 1861     		str	r0, [r3, #16]	@ float
  85:../Libraries/AQ_Math/FourtOrderFilter.h ****   fourthOrder[XAXIS].outputTm2 = 0.0;
 872              		.loc 9 85 0
 873 0010 5861     		str	r0, [r3, #20]	@ float
  86:../Libraries/AQ_Math/FourtOrderFilter.h ****   fourthOrder[XAXIS].outputTm3 = 0.0;
 874              		.loc 9 86 0
 875 0012 9861     		str	r0, [r3, #24]	@ float
  87:../Libraries/AQ_Math/FourtOrderFilter.h ****   fourthOrder[XAXIS].outputTm4 = 0.0;
 876              		.loc 9 87 0
 877 0014 D861     		str	r0, [r3, #28]	@ float
  90:../Libraries/AQ_Math/FourtOrderFilter.h ****   fourthOrder[YAXIS].inputTm1 = 0.0;
 878              		.loc 9 90 0
 879 0016 1862     		str	r0, [r3, #32]	@ float
  91:../Libraries/AQ_Math/FourtOrderFilter.h ****   fourthOrder[YAXIS].inputTm2 = 0.0;
 880              		.loc 9 91 0
 881 0018 5862     		str	r0, [r3, #36]	@ float
  92:../Libraries/AQ_Math/FourtOrderFilter.h ****   fourthOrder[YAXIS].inputTm3 = 0.0;
 882              		.loc 9 92 0
 883 001a 9862     		str	r0, [r3, #40]	@ float
  93:../Libraries/AQ_Math/FourtOrderFilter.h ****   fourthOrder[YAXIS].inputTm4 = 0.0;
 884              		.loc 9 93 0
 885 001c D862     		str	r0, [r3, #44]	@ float
  95:../Libraries/AQ_Math/FourtOrderFilter.h ****   fourthOrder[YAXIS].outputTm1 = 0.0;
 886              		.loc 9 95 0
 887 001e 1863     		str	r0, [r3, #48]	@ float
  96:../Libraries/AQ_Math/FourtOrderFilter.h ****   fourthOrder[YAXIS].outputTm2 = 0.0;
 888              		.loc 9 96 0
 889 0020 5863     		str	r0, [r3, #52]	@ float
  97:../Libraries/AQ_Math/FourtOrderFilter.h ****   fourthOrder[YAXIS].outputTm3 = 0.0;
 890              		.loc 9 97 0
 891 0022 9863     		str	r0, [r3, #56]	@ float
  98:../Libraries/AQ_Math/FourtOrderFilter.h ****   fourthOrder[YAXIS].outputTm4 = 0.0;
 892              		.loc 9 98 0
 893 0024 D863     		str	r0, [r3, #60]	@ float
 894              		.loc 9 101 0
 895 0026 1A64     		str	r2, [r3, #64]	@ float
 102:../Libraries/AQ_Math/FourtOrderFilter.h ****   fourthOrder[ZAXIS].inputTm2 = -9.8065;
 896              		.loc 9 102 0
 897 0028 5A64     		str	r2, [r3, #68]	@ float
 103:../Libraries/AQ_Math/FourtOrderFilter.h ****   fourthOrder[ZAXIS].inputTm3 = -9.8065;
 898              		.loc 9 103 0
 899 002a 9A64     		str	r2, [r3, #72]	@ float
 104:../Libraries/AQ_Math/FourtOrderFilter.h ****   fourthOrder[ZAXIS].inputTm4 = -9.8065;
 900              		.loc 9 104 0
 901 002c DA64     		str	r2, [r3, #76]	@ float
 105:../Libraries/AQ_Math/FourtOrderFilter.h ****   
 106:../Libraries/AQ_Math/FourtOrderFilter.h ****   fourthOrder[ZAXIS].outputTm1 = -9.8065;
 902              		.loc 9 106 0
 903 002e 1A65     		str	r2, [r3, #80]	@ float
 107:../Libraries/AQ_Math/FourtOrderFilter.h ****   fourthOrder[ZAXIS].outputTm2 = -9.8065;
 904              		.loc 9 107 0
 905 0030 5A65     		str	r2, [r3, #84]	@ float
 108:../Libraries/AQ_Math/FourtOrderFilter.h ****   fourthOrder[ZAXIS].outputTm3 = -9.8065;
 906              		.loc 9 108 0
 907 0032 9A65     		str	r2, [r3, #88]	@ float
 109:../Libraries/AQ_Math/FourtOrderFilter.h ****   fourthOrder[ZAXIS].outputTm4 = -9.8065;
 908              		.loc 9 109 0
 909 0034 DA65     		str	r2, [r3, #92]	@ float
 110:../Libraries/AQ_Math/FourtOrderFilter.h **** }
 910              		.loc 9 110 0
 911 0036 7047     		bx	lr
 912              	.L62:
 913              		.align	2
 914              	.L61:
 915 0038 00000000 		.word	.LANCHOR18
 916 003c 6DE71CC1 		.word	-1055070355
 917              		.cfi_endproc
 918              	.LFE128:
 920              		.section	.text._ZN14HardwareSPIExt5SetCSEi,"axG",%progbits,_ZN14HardwareSPIExt5SetCSEi,comdat
 921              		.align	1
 922              		.weak	_ZN14HardwareSPIExt5SetCSEi
 923              		.thumb
 924              		.thumb_func
 926              	_ZN14HardwareSPIExt5SetCSEi:
 927              	.LFB132:
 928              		.file 10 "../Libraries/AQ_SPI/HardwareSPIExt.h"
   1:../Libraries/AQ_SPI/HardwareSPIExt.h **** #ifndef _AEROQUAD_SPI_HARDWARESPIEXT_H_
   2:../Libraries/AQ_SPI/HardwareSPIExt.h **** #define _AEROQUAD_SPI_HARDWARESPIEXT_H_
   3:../Libraries/AQ_SPI/HardwareSPIExt.h **** 
   4:../Libraries/AQ_SPI/HardwareSPIExt.h **** #if defined(AeroQuadSTM32)
   5:../Libraries/AQ_SPI/HardwareSPIExt.h **** 
   6:../Libraries/AQ_SPI/HardwareSPIExt.h **** // helper class to extend the maple HardwareSPI class
   7:../Libraries/AQ_SPI/HardwareSPIExt.h **** // used by the MPU6000 library
   8:../Libraries/AQ_SPI/HardwareSPIExt.h **** 
   9:../Libraries/AQ_SPI/HardwareSPIExt.h **** #include <HardwareSPI.h>
  10:../Libraries/AQ_SPI/HardwareSPIExt.h **** 
  11:../Libraries/AQ_SPI/HardwareSPIExt.h **** #define SPI_READ_FLAG  0x80
  12:../Libraries/AQ_SPI/HardwareSPIExt.h **** #define SPI_MULTI_FLAG 0x40
  13:../Libraries/AQ_SPI/HardwareSPIExt.h **** #define SetPin digitalWrite
  14:../Libraries/AQ_SPI/HardwareSPIExt.h **** 
  15:../Libraries/AQ_SPI/HardwareSPIExt.h **** class HardwareSPIExt : public HardwareSPI {
  16:../Libraries/AQ_SPI/HardwareSPIExt.h **** public:
  17:../Libraries/AQ_SPI/HardwareSPIExt.h **** 	HardwareSPIExt(uint32 spiPortNumber) : HardwareSPI(spiPortNumber) {
  18:../Libraries/AQ_SPI/HardwareSPIExt.h **** 		SetCS(nssPin());
  19:../Libraries/AQ_SPI/HardwareSPIExt.h **** 		fSpiMultiFlag = 0;
  20:../Libraries/AQ_SPI/HardwareSPIExt.h **** 	}
  21:../Libraries/AQ_SPI/HardwareSPIExt.h **** 
  22:../Libraries/AQ_SPI/HardwareSPIExt.h **** 	void SetCS(int aCS)
 929              		.loc 10 22 0
 930              		.cfi_startproc
 931              		@ args = 0, pretend = 0, frame = 0
 932              		@ frame_needed = 0, uses_anonymous_args = 0
 933              		@ link register save eliminated.
 934              	.LVL59:
  23:../Libraries/AQ_SPI/HardwareSPIExt.h **** 	{
  24:../Libraries/AQ_SPI/HardwareSPIExt.h **** 		fCS = aCS;
 935              		.loc 10 24 0
 936 0000 4160     		str	r1, [r0, #4]
  25:../Libraries/AQ_SPI/HardwareSPIExt.h **** 	}
 937              		.loc 10 25 0
 938 0002 7047     		bx	lr
 939              		.cfi_endproc
 940              	.LFE132:
 942              		.section	.text._ZN14HardwareSPIExtC2Ej,"axG",%progbits,_ZN14HardwareSPIExtC5Ej,comdat
 943              		.align	1
 944              		.weak	_ZN14HardwareSPIExtC2Ej
 945              		.thumb
 946              		.thumb_func
 948              	_ZN14HardwareSPIExtC2Ej:
 949              	.LFB130:
  17:../Libraries/AQ_SPI/HardwareSPIExt.h **** 	HardwareSPIExt(uint32 spiPortNumber) : HardwareSPI(spiPortNumber) {
 950              		.loc 10 17 0
 951              		.cfi_startproc
 952              		@ args = 0, pretend = 0, frame = 0
 953              		@ frame_needed = 0, uses_anonymous_args = 0
 954              	.LVL60:
 955 0000 10B5     		push	{r4, lr}
 956              	.LCFI4:
 957              		.cfi_def_cfa_offset 8
 958              		.cfi_offset 14, -4
 959              		.cfi_offset 4, -8
  17:../Libraries/AQ_SPI/HardwareSPIExt.h **** 	HardwareSPIExt(uint32 spiPortNumber) : HardwareSPI(spiPortNumber) {
 960              		.loc 10 17 0
 961 0002 0446     		mov	r4, r0
 962              	.LBB33:
 963 0004 FFF7FEFF 		bl	_ZN11HardwareSPIC2Ej
 964              	.LVL61:
  18:../Libraries/AQ_SPI/HardwareSPIExt.h **** 		SetCS(nssPin());
 965              		.loc 10 18 0
 966 0008 2046     		mov	r0, r4
 967 000a FFF7FEFF 		bl	_ZN11HardwareSPI6nssPinEv
 968 000e 0146     		mov	r1, r0
 969 0010 2046     		mov	r0, r4
 970 0012 FFF7FEFF 		bl	_ZN14HardwareSPIExt5SetCSEi
  19:../Libraries/AQ_SPI/HardwareSPIExt.h **** 		fSpiMultiFlag = 0;
 971              		.loc 10 19 0
 972 0016 0023     		movs	r3, #0
 973 0018 2372     		strb	r3, [r4, #8]
 974              	.LBE33:
  20:../Libraries/AQ_SPI/HardwareSPIExt.h **** 	}
 975              		.loc 10 20 0
 976 001a 2046     		mov	r0, r4
 977 001c 10BD     		pop	{r4, pc}
 978              		.cfi_endproc
 979              	.LFE130:
 981              		.section	.text._ZN14HardwareSPIExt5beginE12SPIFrequencyjj,"axG",%progbits,_ZN14HardwareSPIExt5begi
 982              		.align	1
 983              		.weak	_ZN14HardwareSPIExt5beginE12SPIFrequencyjj
 984              		.thumb
 985              		.thumb_func
 987              	_ZN14HardwareSPIExt5beginE12SPIFrequencyjj:
 988              	.LFB134:
  26:../Libraries/AQ_SPI/HardwareSPIExt.h **** 
  27:../Libraries/AQ_SPI/HardwareSPIExt.h **** 	void SetMultiFlag() {
  28:../Libraries/AQ_SPI/HardwareSPIExt.h **** 		fSpiMultiFlag = SPI_MULTI_FLAG;
  29:../Libraries/AQ_SPI/HardwareSPIExt.h **** 	}
  30:../Libraries/AQ_SPI/HardwareSPIExt.h **** 
  31:../Libraries/AQ_SPI/HardwareSPIExt.h **** 	void begin(SPIFrequency frequency, uint32 bitOrder, uint32 mode)
 989              		.loc 10 31 0
 990              		.cfi_startproc
 991              		@ args = 0, pretend = 0, frame = 0
 992              		@ frame_needed = 0, uses_anonymous_args = 0
 993              	.LVL62:
 994 0000 2DE9F041 		push	{r4, r5, r6, r7, r8, lr}
 995              	.LCFI5:
 996              		.cfi_def_cfa_offset 24
 997              		.cfi_offset 14, -4
 998              		.cfi_offset 8, -8
 999              		.cfi_offset 7, -12
 1000              		.cfi_offset 6, -16
 1001              		.cfi_offset 5, -20
 1002              		.cfi_offset 4, -24
 1003              		.loc 10 31 0
 1004 0004 0446     		mov	r4, r0
 1005 0006 0D46     		mov	r5, r1
  32:../Libraries/AQ_SPI/HardwareSPIExt.h **** 	{
  33:../Libraries/AQ_SPI/HardwareSPIExt.h **** 		SetPin(fCS, 1);
 1006              		.loc 10 33 0
 1007 0008 0079     		ldrb	r0, [r0, #4]	@ zero_extendqisi2
 1008              	.LVL63:
 1009 000a 0121     		movs	r1, #1
 1010              	.LVL64:
  31:../Libraries/AQ_SPI/HardwareSPIExt.h **** 	void begin(SPIFrequency frequency, uint32 bitOrder, uint32 mode)
 1011              		.loc 10 31 0
 1012 000c 1746     		mov	r7, r2
 1013 000e 1E46     		mov	r6, r3
 1014              		.loc 10 33 0
 1015 0010 FFF7FEFF 		bl	_Z12digitalWritehh
 1016              	.LVL65:
  34:../Libraries/AQ_SPI/HardwareSPIExt.h **** 		pinMode(fCS, OUTPUT);
 1017              		.loc 10 34 0
 1018 0014 2079     		ldrb	r0, [r4, #4]	@ zero_extendqisi2
 1019 0016 0021     		movs	r1, #0
 1020 0018 FFF7FEFF 		bl	_Z7pinModeh13WiringPinMode
  35:../Libraries/AQ_SPI/HardwareSPIExt.h **** 
  36:../Libraries/AQ_SPI/HardwareSPIExt.h **** 		HardwareSPI::begin(frequency, bitOrder, mode);
 1021              		.loc 10 36 0
 1022 001c 2046     		mov	r0, r4
 1023 001e 2946     		mov	r1, r5
 1024 0020 3A46     		mov	r2, r7
 1025 0022 3346     		mov	r3, r6
  37:../Libraries/AQ_SPI/HardwareSPIExt.h **** 	}
 1026              		.loc 10 37 0
 1027 0024 BDE8F041 		pop	{r4, r5, r6, r7, r8, lr}
  36:../Libraries/AQ_SPI/HardwareSPIExt.h **** 		HardwareSPI::begin(frequency, bitOrder, mode);
 1028              		.loc 10 36 0
 1029 0028 FFF7FEBF 		b	_ZN11HardwareSPI5beginE12SPIFrequencyjj
 1030              		.cfi_endproc
 1031              	.LFE134:
 1033              		.section	.text._ZN14HardwareSPIExt4ReadEiPhi,"axG",%progbits,_ZN14HardwareSPIExt4ReadEiPhi,comdat
 1034              		.align	1
 1035              		.weak	_ZN14HardwareSPIExt4ReadEiPhi
 1036              		.thumb
 1037              		.thumb_func
 1039              	_ZN14HardwareSPIExt4ReadEiPhi:
 1040              	.LFB135:
  38:../Libraries/AQ_SPI/HardwareSPIExt.h **** 
  39:../Libraries/AQ_SPI/HardwareSPIExt.h **** 	void Read(int addr, unsigned char *data, int dataLen)
 1041              		.loc 10 39 0
 1042              		.cfi_startproc
 1043              		@ args = 0, pretend = 0, frame = 0
 1044              		@ frame_needed = 0, uses_anonymous_args = 0
 1045              	.LVL66:
 1046 0000 F8B5     		push	{r3, r4, r5, r6, r7, lr}
 1047              	.LCFI6:
 1048              		.cfi_def_cfa_offset 24
 1049              		.cfi_offset 14, -4
 1050              		.cfi_offset 7, -8
 1051              		.cfi_offset 6, -12
 1052              		.cfi_offset 5, -16
 1053              		.cfi_offset 4, -20
 1054              		.cfi_offset 3, -24
 1055              		.loc 10 39 0
 1056 0002 0446     		mov	r4, r0
 1057 0004 0D46     		mov	r5, r1
  40:../Libraries/AQ_SPI/HardwareSPIExt.h **** 	{
  41:../Libraries/AQ_SPI/HardwareSPIExt.h **** 		SetPin(fCS, 0);
 1058              		.loc 10 41 0
 1059 0006 0079     		ldrb	r0, [r0, #4]	@ zero_extendqisi2
 1060              	.LVL67:
 1061 0008 0021     		movs	r1, #0
 1062              	.LVL68:
  39:../Libraries/AQ_SPI/HardwareSPIExt.h **** 	void Read(int addr, unsigned char *data, int dataLen)
 1063              		.loc 10 39 0
 1064 000a 1F46     		mov	r7, r3
 1065 000c 1646     		mov	r6, r2
 1066              		.loc 10 41 0
 1067 000e FFF7FEFF 		bl	_Z12digitalWritehh
 1068              	.LVL69:
  42:../Libraries/AQ_SPI/HardwareSPIExt.h **** 		transfer(addr | SPI_READ_FLAG | fSpiMultiFlag);
 1069              		.loc 10 42 0
 1070 0012 207A     		ldrb	r0, [r4, #8]	@ zero_extendqisi2
 1071 0014 60F07F03 		orn	r3, r0, #127
 1072 0018 1D43     		orrs	r5, r5, r3
 1073              	.LVL70:
 1074 001a E9B2     		uxtb	r1, r5
 1075 001c 2046     		mov	r0, r4
 1076 001e FFF7FEFF 		bl	_ZN11HardwareSPI8transferEh
 1077 0022 3D46     		mov	r5, r7
  43:../Libraries/AQ_SPI/HardwareSPIExt.h **** 		while(dataLen-- > 0) {
 1078              		.loc 10 43 0
 1079 0024 06E0     		b	.L68
 1080              	.LVL71:
 1081              	.L69:
  44:../Libraries/AQ_SPI/HardwareSPIExt.h **** 			*data++ = transfer(0);
 1082              		.loc 10 44 0
 1083 0026 2046     		mov	r0, r4
 1084 0028 0021     		movs	r1, #0
 1085 002a FFF7FEFF 		bl	_ZN11HardwareSPI8transferEh
 1086 002e 06F8010B 		strb	r0, [r6], #1
 1087              	.LVL72:
 1088 0032 013D     		subs	r5, r5, #1
 1089              	.L68:
  43:../Libraries/AQ_SPI/HardwareSPIExt.h **** 		while(dataLen-- > 0) {
 1090              		.loc 10 43 0 discriminator 1
 1091 0034 002D     		cmp	r5, #0
 1092 0036 F6DC     		bgt	.L69
  45:../Libraries/AQ_SPI/HardwareSPIExt.h **** 		}
  46:../Libraries/AQ_SPI/HardwareSPIExt.h **** 		SetPin(fCS, 1);
 1093              		.loc 10 46 0
 1094 0038 2079     		ldrb	r0, [r4, #4]	@ zero_extendqisi2
 1095 003a 0121     		movs	r1, #1
  47:../Libraries/AQ_SPI/HardwareSPIExt.h **** 	}
 1096              		.loc 10 47 0
 1097 003c BDE8F840 		pop	{r3, r4, r5, r6, r7, lr}
  46:../Libraries/AQ_SPI/HardwareSPIExt.h **** 		SetPin(fCS, 1);
 1098              		.loc 10 46 0
 1099 0040 FFF7FEBF 		b	_Z12digitalWritehh
 1100              		.cfi_endproc
 1101              	.LFE135:
 1103              		.section	.text._ZN14HardwareSPIExt4ReadEi,"axG",%progbits,_ZN14HardwareSPIExt4ReadEi,comdat
 1104              		.align	1
 1105              		.weak	_ZN14HardwareSPIExt4ReadEi
 1106              		.thumb
 1107              		.thumb_func
 1109              	_ZN14HardwareSPIExt4ReadEi:
 1110              	.LFB136:
  48:../Libraries/AQ_SPI/HardwareSPIExt.h **** 
  49:../Libraries/AQ_SPI/HardwareSPIExt.h **** 	unsigned char Read(int addr)
 1111              		.loc 10 49 0
 1112              		.cfi_startproc
 1113              		@ args = 0, pretend = 0, frame = 8
 1114              		@ frame_needed = 0, uses_anonymous_args = 0
 1115              	.LVL73:
 1116 0000 07B5     		push	{r0, r1, r2, lr}
 1117              	.LCFI7:
 1118              		.cfi_def_cfa_offset 16
 1119              		.cfi_offset 14, -4
 1120              		.cfi_offset 2, -8
 1121              		.cfi_offset 1, -12
 1122              		.cfi_offset 0, -16
 1123              	.LBB34:
  50:../Libraries/AQ_SPI/HardwareSPIExt.h **** 	{
  51:../Libraries/AQ_SPI/HardwareSPIExt.h **** 		unsigned char data;
  52:../Libraries/AQ_SPI/HardwareSPIExt.h **** 		Read(addr, &data, 1);
 1124              		.loc 10 52 0
 1125 0002 0123     		movs	r3, #1
 1126 0004 0DF10702 		add	r2, sp, #7
 1127 0008 FFF7FEFF 		bl	_ZN14HardwareSPIExt4ReadEiPhi
 1128              	.LVL74:
 1129              	.LBE34:
  53:../Libraries/AQ_SPI/HardwareSPIExt.h **** 
  54:../Libraries/AQ_SPI/HardwareSPIExt.h **** 		return data;
  55:../Libraries/AQ_SPI/HardwareSPIExt.h **** 	}
 1130              		.loc 10 55 0
 1131 000c 9DF80700 		ldrb	r0, [sp, #7]	@ zero_extendqisi2
 1132 0010 0EBD     		pop	{r1, r2, r3, pc}
 1133              		.cfi_endproc
 1134              	.LFE136:
 1136              		.section	.text._ZN14HardwareSPIExt5WriteEiPhi,"axG",%progbits,_ZN14HardwareSPIExt5WriteEiPhi,comda
 1137              		.align	1
 1138              		.weak	_ZN14HardwareSPIExt5WriteEiPhi
 1139              		.thumb
 1140              		.thumb_func
 1142              	_ZN14HardwareSPIExt5WriteEiPhi:
 1143              	.LFB137:
  56:../Libraries/AQ_SPI/HardwareSPIExt.h **** 
  57:../Libraries/AQ_SPI/HardwareSPIExt.h **** 	void Write(int addr, unsigned char *data, int dataLen)
 1144              		.loc 10 57 0
 1145              		.cfi_startproc
 1146              		@ args = 0, pretend = 0, frame = 0
 1147              		@ frame_needed = 0, uses_anonymous_args = 0
 1148              	.LVL75:
 1149 0000 F8B5     		push	{r3, r4, r5, r6, r7, lr}
 1150              	.LCFI8:
 1151              		.cfi_def_cfa_offset 24
 1152              		.cfi_offset 14, -4
 1153              		.cfi_offset 7, -8
 1154              		.cfi_offset 6, -12
 1155              		.cfi_offset 5, -16
 1156              		.cfi_offset 4, -20
 1157              		.cfi_offset 3, -24
 1158              		.loc 10 57 0
 1159 0002 0446     		mov	r4, r0
 1160 0004 0D46     		mov	r5, r1
  58:../Libraries/AQ_SPI/HardwareSPIExt.h **** 	{
  59:../Libraries/AQ_SPI/HardwareSPIExt.h **** 		SetPin(fCS, 0);
 1161              		.loc 10 59 0
 1162 0006 0079     		ldrb	r0, [r0, #4]	@ zero_extendqisi2
 1163              	.LVL76:
 1164 0008 0021     		movs	r1, #0
 1165              	.LVL77:
  57:../Libraries/AQ_SPI/HardwareSPIExt.h **** 	void Write(int addr, unsigned char *data, int dataLen)
 1166              		.loc 10 57 0
 1167 000a 1F46     		mov	r7, r3
 1168 000c 1646     		mov	r6, r2
 1169              		.loc 10 59 0
 1170 000e FFF7FEFF 		bl	_Z12digitalWritehh
 1171              	.LVL78:
  60:../Libraries/AQ_SPI/HardwareSPIExt.h **** 		transfer(addr | fSpiMultiFlag);
 1172              		.loc 10 60 0
 1173 0012 237A     		ldrb	r3, [r4, #8]	@ zero_extendqisi2
 1174 0014 1D43     		orrs	r5, r5, r3
 1175              	.LVL79:
 1176 0016 E9B2     		uxtb	r1, r5
 1177 0018 2046     		mov	r0, r4
 1178 001a FFF7FEFF 		bl	_ZN11HardwareSPI8transferEh
 1179 001e 3D46     		mov	r5, r7
  61:../Libraries/AQ_SPI/HardwareSPIExt.h **** 		while(dataLen-- > 0) {
 1180              		.loc 10 61 0
 1181 0020 05E0     		b	.L72
 1182              	.LVL80:
 1183              	.L73:
  62:../Libraries/AQ_SPI/HardwareSPIExt.h **** 			transfer(*data++);
 1184              		.loc 10 62 0
 1185 0022 2046     		mov	r0, r4
 1186 0024 16F8011B 		ldrb	r1, [r6], #1	@ zero_extendqisi2
 1187              	.LVL81:
 1188 0028 FFF7FEFF 		bl	_ZN11HardwareSPI8transferEh
 1189 002c 013D     		subs	r5, r5, #1
 1190              	.LVL82:
 1191              	.L72:
  61:../Libraries/AQ_SPI/HardwareSPIExt.h **** 		while(dataLen-- > 0) {
 1192              		.loc 10 61 0 discriminator 1
 1193 002e 002D     		cmp	r5, #0
 1194 0030 F7DC     		bgt	.L73
  63:../Libraries/AQ_SPI/HardwareSPIExt.h **** 		}
  64:../Libraries/AQ_SPI/HardwareSPIExt.h **** 		SetPin(fCS, 1);
 1195              		.loc 10 64 0
 1196 0032 2079     		ldrb	r0, [r4, #4]	@ zero_extendqisi2
 1197 0034 0121     		movs	r1, #1
  65:../Libraries/AQ_SPI/HardwareSPIExt.h **** 	}
 1198              		.loc 10 65 0
 1199 0036 BDE8F840 		pop	{r3, r4, r5, r6, r7, lr}
  64:../Libraries/AQ_SPI/HardwareSPIExt.h **** 		SetPin(fCS, 1);
 1200              		.loc 10 64 0
 1201 003a FFF7FEBF 		b	_Z12digitalWritehh
 1202              		.cfi_endproc
 1203              	.LFE137:
 1205              		.section	.text._ZN14HardwareSPIExt5WriteEih,"axG",%progbits,_ZN14HardwareSPIExt5WriteEih,comdat
 1206              		.align	1
 1207              		.weak	_ZN14HardwareSPIExt5WriteEih
 1208              		.thumb
 1209              		.thumb_func
 1211              	_ZN14HardwareSPIExt5WriteEih:
 1212              	.LFB138:
  66:../Libraries/AQ_SPI/HardwareSPIExt.h **** 
  67:../Libraries/AQ_SPI/HardwareSPIExt.h **** 	void Write(int addr, unsigned char data)
 1213              		.loc 10 67 0
 1214              		.cfi_startproc
 1215              		@ args = 0, pretend = 0, frame = 8
 1216              		@ frame_needed = 0, uses_anonymous_args = 0
 1217              	.LVL83:
 1218 0000 07B5     		push	{r0, r1, r2, lr}
 1219              	.LCFI9:
 1220              		.cfi_def_cfa_offset 16
 1221              		.cfi_offset 14, -4
 1222              		.cfi_offset 2, -8
 1223              		.cfi_offset 1, -12
 1224              		.cfi_offset 0, -16
 1225              	.LVL84:
 1226              		.loc 10 67 0
 1227 0002 02AB     		add	r3, sp, #8
 1228              	.LVL85:
 1229 0004 03F8012D 		strb	r2, [r3, #-1]!
  68:../Libraries/AQ_SPI/HardwareSPIExt.h **** 	{
  69:../Libraries/AQ_SPI/HardwareSPIExt.h **** 		Write(addr, &data, 1);
 1230              		.loc 10 69 0
 1231 0008 1A46     		mov	r2, r3
 1232              	.LVL86:
 1233 000a 0123     		movs	r3, #1
 1234 000c FFF7FEFF 		bl	_ZN14HardwareSPIExt5WriteEiPhi
 1235              	.LVL87:
  70:../Libraries/AQ_SPI/HardwareSPIExt.h **** 	}
 1236              		.loc 10 70 0
 1237 0010 0EBD     		pop	{r1, r2, r3, pc}
 1238              		.cfi_endproc
 1239              	.LFE138:
 1241              		.section	.text._Z19MPU6000_SpiLowSpeedv,"ax",%progbits
 1242              		.align	1
 1243              		.global	_Z19MPU6000_SpiLowSpeedv
 1244              		.thumb
 1245              		.thumb_func
 1247              	_Z19MPU6000_SpiLowSpeedv:
 1248              	.LFB139:
 1249              		.file 11 "../Libraries/AQ_Platform_MPU6000/Platform_MPU6000.h"
   1:../Libraries/AQ_Platform_MPU6000/Platform_MPU6000.h **** /*
   2:../Libraries/AQ_Platform_MPU6000/Platform_MPU6000.h ****   AeroQuad v3.0 - May 2011
   3:../Libraries/AQ_Platform_MPU6000/Platform_MPU6000.h ****   www.AeroQuad.com
   4:../Libraries/AQ_Platform_MPU6000/Platform_MPU6000.h ****   Copyright (c) 2011 Ted Carancho.  All rights reserved.
   5:../Libraries/AQ_Platform_MPU6000/Platform_MPU6000.h ****   An Open Source Arduino based multicopter.
   6:../Libraries/AQ_Platform_MPU6000/Platform_MPU6000.h **** 
   7:../Libraries/AQ_Platform_MPU6000/Platform_MPU6000.h ****   This program is free software: you can redistribute it and/or modify
   8:../Libraries/AQ_Platform_MPU6000/Platform_MPU6000.h ****   it under the terms of the GNU General Public License as published by
   9:../Libraries/AQ_Platform_MPU6000/Platform_MPU6000.h ****   the Free Software Foundation, either version 3 of the License, or
  10:../Libraries/AQ_Platform_MPU6000/Platform_MPU6000.h ****   (at your option) any later version.
  11:../Libraries/AQ_Platform_MPU6000/Platform_MPU6000.h **** 
  12:../Libraries/AQ_Platform_MPU6000/Platform_MPU6000.h ****   This program is distributed in the hope that it will be useful,
  13:../Libraries/AQ_Platform_MPU6000/Platform_MPU6000.h ****   but WITHOUT ANY WARRANTY; without even the implied warranty of
  14:../Libraries/AQ_Platform_MPU6000/Platform_MPU6000.h ****   MERCHANTABILITY or FITNESS FOR A PARTICULAR PURPOSE. See the
  15:../Libraries/AQ_Platform_MPU6000/Platform_MPU6000.h ****   GNU General Public License for more details.
  16:../Libraries/AQ_Platform_MPU6000/Platform_MPU6000.h **** 
  17:../Libraries/AQ_Platform_MPU6000/Platform_MPU6000.h ****   You should have received a copy of the GNU General Public License
  18:../Libraries/AQ_Platform_MPU6000/Platform_MPU6000.h ****   along with this program. If not, see <http://www.gnu.org/licenses/>.
  19:../Libraries/AQ_Platform_MPU6000/Platform_MPU6000.h **** */
  20:../Libraries/AQ_Platform_MPU6000/Platform_MPU6000.h **** 
  21:../Libraries/AQ_Platform_MPU6000/Platform_MPU6000.h **** // parts of the init sequence were taken from AP_InertialSensor_MPU6000.h
  22:../Libraries/AQ_Platform_MPU6000/Platform_MPU6000.h **** 
  23:../Libraries/AQ_Platform_MPU6000/Platform_MPU6000.h **** #ifndef _AEROQUAD_PLATFORM_MPU6000_H_
  24:../Libraries/AQ_Platform_MPU6000/Platform_MPU6000.h **** #define _AEROQUAD_PLATFORM_MPU6000_H_
  25:../Libraries/AQ_Platform_MPU6000/Platform_MPU6000.h **** 
  26:../Libraries/AQ_Platform_MPU6000/Platform_MPU6000.h **** // I2C support for MPU6000/6050 is not tested yet
  27:../Libraries/AQ_Platform_MPU6000/Platform_MPU6000.h **** //#define MPU6000_I2C
  28:../Libraries/AQ_Platform_MPU6000/Platform_MPU6000.h **** 
  29:../Libraries/AQ_Platform_MPU6000/Platform_MPU6000.h **** #include "Arduino.h"
  30:../Libraries/AQ_Platform_MPU6000/Platform_MPU6000.h **** #include <SensorsStatus.h>
  31:../Libraries/AQ_Platform_MPU6000/Platform_MPU6000.h **** 
  32:../Libraries/AQ_Platform_MPU6000/Platform_MPU6000.h **** //#define MPU6000_I2C	// insert this define before #include <Platform_MPU6000.h> when you use a I2C
  33:../Libraries/AQ_Platform_MPU6000/Platform_MPU6000.h **** 
  34:../Libraries/AQ_Platform_MPU6000/Platform_MPU6000.h **** // MPU 6000 registers
  35:../Libraries/AQ_Platform_MPU6000/Platform_MPU6000.h **** #define MPUREG_WHOAMI			0x75
  36:../Libraries/AQ_Platform_MPU6000/Platform_MPU6000.h **** #define MPUREG_SMPLRT_DIV		0x19
  37:../Libraries/AQ_Platform_MPU6000/Platform_MPU6000.h **** #define MPUREG_CONFIG			0x1A
  38:../Libraries/AQ_Platform_MPU6000/Platform_MPU6000.h **** #define MPUREG_GYRO_CONFIG		0x1B
  39:../Libraries/AQ_Platform_MPU6000/Platform_MPU6000.h **** #define MPUREG_ACCEL_CONFIG		0x1C
  40:../Libraries/AQ_Platform_MPU6000/Platform_MPU6000.h **** #define MPUREG_FIFO_EN			0x23
  41:../Libraries/AQ_Platform_MPU6000/Platform_MPU6000.h **** #define MPUREG_INT_PIN_CFG		0x37
  42:../Libraries/AQ_Platform_MPU6000/Platform_MPU6000.h **** #define MPUREG_INT_ENABLE		0x38
  43:../Libraries/AQ_Platform_MPU6000/Platform_MPU6000.h **** #define MPUREG_INT_STATUS		0x3A
  44:../Libraries/AQ_Platform_MPU6000/Platform_MPU6000.h **** #define MPUREG_ACCEL_XOUT_H		0x3B
  45:../Libraries/AQ_Platform_MPU6000/Platform_MPU6000.h **** #define MPUREG_ACCEL_XOUT_L		0x3C
  46:../Libraries/AQ_Platform_MPU6000/Platform_MPU6000.h **** #define MPUREG_ACCEL_YOUT_H		0x3D
  47:../Libraries/AQ_Platform_MPU6000/Platform_MPU6000.h **** #define MPUREG_ACCEL_YOUT_L		0x3E
  48:../Libraries/AQ_Platform_MPU6000/Platform_MPU6000.h **** #define MPUREG_ACCEL_ZOUT_H		0x3F
  49:../Libraries/AQ_Platform_MPU6000/Platform_MPU6000.h **** #define MPUREG_ACCEL_ZOUT_L		0x40
  50:../Libraries/AQ_Platform_MPU6000/Platform_MPU6000.h **** #define MPUREG_TEMP_OUT_H		0x41
  51:../Libraries/AQ_Platform_MPU6000/Platform_MPU6000.h **** #define MPUREG_TEMP_OUT_L		0x42
  52:../Libraries/AQ_Platform_MPU6000/Platform_MPU6000.h **** #define MPUREG_GYRO_XOUT_H		0x43
  53:../Libraries/AQ_Platform_MPU6000/Platform_MPU6000.h **** #define MPUREG_GYRO_XOUT_L		0x44
  54:../Libraries/AQ_Platform_MPU6000/Platform_MPU6000.h **** #define MPUREG_GYRO_YOUT_H		0x45
  55:../Libraries/AQ_Platform_MPU6000/Platform_MPU6000.h **** #define MPUREG_GYRO_YOUT_L		0x46
  56:../Libraries/AQ_Platform_MPU6000/Platform_MPU6000.h **** #define MPUREG_GYRO_ZOUT_H		0x47
  57:../Libraries/AQ_Platform_MPU6000/Platform_MPU6000.h **** #define MPUREG_GYRO_ZOUT_L		0x48
  58:../Libraries/AQ_Platform_MPU6000/Platform_MPU6000.h **** #define MPUREG_USER_CTRL		0x6A
  59:../Libraries/AQ_Platform_MPU6000/Platform_MPU6000.h **** #define MPUREG_PWR_MGMT_1		0x6B
  60:../Libraries/AQ_Platform_MPU6000/Platform_MPU6000.h **** #define MPUREG_PWR_MGMT_2		0x6C
  61:../Libraries/AQ_Platform_MPU6000/Platform_MPU6000.h **** #define MPUREG_FIFO_COUNTH		0x72
  62:../Libraries/AQ_Platform_MPU6000/Platform_MPU6000.h **** #define MPUREG_FIFO_COUNTL		0x73
  63:../Libraries/AQ_Platform_MPU6000/Platform_MPU6000.h **** #define MPUREG_FIFO_R_W			0x74
  64:../Libraries/AQ_Platform_MPU6000/Platform_MPU6000.h **** 
  65:../Libraries/AQ_Platform_MPU6000/Platform_MPU6000.h **** 
  66:../Libraries/AQ_Platform_MPU6000/Platform_MPU6000.h **** // Configuration bits
  67:../Libraries/AQ_Platform_MPU6000/Platform_MPU6000.h **** #define BIT_SLEEP				0x40
  68:../Libraries/AQ_Platform_MPU6000/Platform_MPU6000.h **** #define BIT_H_RESET				0x80
  69:../Libraries/AQ_Platform_MPU6000/Platform_MPU6000.h **** #define BITS_CLKSEL				0x07
  70:../Libraries/AQ_Platform_MPU6000/Platform_MPU6000.h **** #define MPU_CLK_SEL_PLLGYROX	0x01
  71:../Libraries/AQ_Platform_MPU6000/Platform_MPU6000.h **** #define MPU_CLK_SEL_PLLGYROZ	0x03
  72:../Libraries/AQ_Platform_MPU6000/Platform_MPU6000.h **** #define MPU_EXT_SYNC_GYROX		0x02
  73:../Libraries/AQ_Platform_MPU6000/Platform_MPU6000.h **** #define BITS_FS_250DPS          0x00
  74:../Libraries/AQ_Platform_MPU6000/Platform_MPU6000.h **** #define BITS_FS_500DPS          0x08
  75:../Libraries/AQ_Platform_MPU6000/Platform_MPU6000.h **** #define BITS_FS_1000DPS         0x10
  76:../Libraries/AQ_Platform_MPU6000/Platform_MPU6000.h **** #define BITS_FS_2000DPS         0x18
  77:../Libraries/AQ_Platform_MPU6000/Platform_MPU6000.h **** #define BITS_FS_MASK            0x18
  78:../Libraries/AQ_Platform_MPU6000/Platform_MPU6000.h **** #define BITS_DLPF_CFG_256HZ_NOLPF2  0x00
  79:../Libraries/AQ_Platform_MPU6000/Platform_MPU6000.h **** #define BITS_DLPF_CFG_188HZ         0x01
  80:../Libraries/AQ_Platform_MPU6000/Platform_MPU6000.h **** #define BITS_DLPF_CFG_98HZ          0x02
  81:../Libraries/AQ_Platform_MPU6000/Platform_MPU6000.h **** #define BITS_DLPF_CFG_42HZ          0x03
  82:../Libraries/AQ_Platform_MPU6000/Platform_MPU6000.h **** #define BITS_DLPF_CFG_20HZ          0x04
  83:../Libraries/AQ_Platform_MPU6000/Platform_MPU6000.h **** #define BITS_DLPF_CFG_10HZ          0x05
  84:../Libraries/AQ_Platform_MPU6000/Platform_MPU6000.h **** #define BITS_DLPF_CFG_5HZ           0x06
  85:../Libraries/AQ_Platform_MPU6000/Platform_MPU6000.h **** #define BITS_DLPF_CFG_2100HZ_NOLPF  0x07
  86:../Libraries/AQ_Platform_MPU6000/Platform_MPU6000.h **** #define BITS_DLPF_CFG_MASK          0x07
  87:../Libraries/AQ_Platform_MPU6000/Platform_MPU6000.h **** #define BIT_INT_ANYRD_2CLEAR    0x10
  88:../Libraries/AQ_Platform_MPU6000/Platform_MPU6000.h **** #define BIT_RAW_RDY_EN			0x01
  89:../Libraries/AQ_Platform_MPU6000/Platform_MPU6000.h **** #define BIT_I2C_IF_DIS          0x10
  90:../Libraries/AQ_Platform_MPU6000/Platform_MPU6000.h **** #define BIT_INT_STATUS_DATA		0x01
  91:../Libraries/AQ_Platform_MPU6000/Platform_MPU6000.h **** 
  92:../Libraries/AQ_Platform_MPU6000/Platform_MPU6000.h **** 
  93:../Libraries/AQ_Platform_MPU6000/Platform_MPU6000.h **** typedef struct {
  94:../Libraries/AQ_Platform_MPU6000/Platform_MPU6000.h **** 	short x;
  95:../Libraries/AQ_Platform_MPU6000/Platform_MPU6000.h **** 	short y;
  96:../Libraries/AQ_Platform_MPU6000/Platform_MPU6000.h **** 	short z;
  97:../Libraries/AQ_Platform_MPU6000/Platform_MPU6000.h **** } tAxis;
  98:../Libraries/AQ_Platform_MPU6000/Platform_MPU6000.h **** 
  99:../Libraries/AQ_Platform_MPU6000/Platform_MPU6000.h **** union uMPU6000 {
 100:../Libraries/AQ_Platform_MPU6000/Platform_MPU6000.h **** 	unsigned char rawByte[];
 101:../Libraries/AQ_Platform_MPU6000/Platform_MPU6000.h **** 	unsigned short rawWord[];
 102:../Libraries/AQ_Platform_MPU6000/Platform_MPU6000.h **** 	struct {
 103:../Libraries/AQ_Platform_MPU6000/Platform_MPU6000.h **** 		tAxis accel;
 104:../Libraries/AQ_Platform_MPU6000/Platform_MPU6000.h **** 		short temperature;
 105:../Libraries/AQ_Platform_MPU6000/Platform_MPU6000.h **** 		tAxis gyro;
 106:../Libraries/AQ_Platform_MPU6000/Platform_MPU6000.h **** 	} data;
 107:../Libraries/AQ_Platform_MPU6000/Platform_MPU6000.h **** } MPU6000;
 108:../Libraries/AQ_Platform_MPU6000/Platform_MPU6000.h **** 
 109:../Libraries/AQ_Platform_MPU6000/Platform_MPU6000.h **** 
 110:../Libraries/AQ_Platform_MPU6000/Platform_MPU6000.h **** #ifdef MPU6000_I2C
 111:../Libraries/AQ_Platform_MPU6000/Platform_MPU6000.h **** 	#ifndef MPU6000_I2C_ADDRESS
 112:../Libraries/AQ_Platform_MPU6000/Platform_MPU6000.h **** 		#define MPU6000_I2C_ADDRESS 0x68
 113:../Libraries/AQ_Platform_MPU6000/Platform_MPU6000.h **** 	#endif
 114:../Libraries/AQ_Platform_MPU6000/Platform_MPU6000.h **** #else
 115:../Libraries/AQ_Platform_MPU6000/Platform_MPU6000.h **** 	#include <HardwareSPIExt.h>
 116:../Libraries/AQ_Platform_MPU6000/Platform_MPU6000.h **** 	HardwareSPIExt spiMPU6000(4);
 117:../Libraries/AQ_Platform_MPU6000/Platform_MPU6000.h **** #endif
 118:../Libraries/AQ_Platform_MPU6000/Platform_MPU6000.h **** 
 119:../Libraries/AQ_Platform_MPU6000/Platform_MPU6000.h **** void MPU6000_SpiLowSpeed()
 120:../Libraries/AQ_Platform_MPU6000/Platform_MPU6000.h **** {
 1250              		.loc 11 120 0
 1251              		.cfi_startproc
 1252              		@ args = 0, pretend = 0, frame = 0
 1253              		@ frame_needed = 0, uses_anonymous_args = 0
 1254 0000 08B5     		push	{r3, lr}
 1255              	.LCFI10:
 1256              		.cfi_def_cfa_offset 8
 1257              		.cfi_offset 14, -4
 1258              		.cfi_offset 3, -8
 121:../Libraries/AQ_Platform_MPU6000/Platform_MPU6000.h **** #ifndef MPU6000_I2C
 122:../Libraries/AQ_Platform_MPU6000/Platform_MPU6000.h **** 	spiMPU6000.begin(SPI_562_500KHZ, MSBFIRST, 3);
 1259              		.loc 11 122 0
 1260 0002 0348     		ldr	r0, .L76
 1261 0004 0521     		movs	r1, #5
 1262 0006 0122     		movs	r2, #1
 1263 0008 0323     		movs	r3, #3
 1264 000a FFF7FEFF 		bl	_ZN14HardwareSPIExt5beginE12SPIFrequencyjj
 123:../Libraries/AQ_Platform_MPU6000/Platform_MPU6000.h **** #endif
 124:../Libraries/AQ_Platform_MPU6000/Platform_MPU6000.h **** }
 1265              		.loc 11 124 0
 1266 000e 08BD     		pop	{r3, pc}
 1267              	.L77:
 1268              		.align	2
 1269              	.L76:
 1270 0010 00000000 		.word	.LANCHOR19
 1271              		.cfi_endproc
 1272              	.LFE139:
 1274              		.section	.text._Z20MPU6000_SpiHighSpeedv,"ax",%progbits
 1275              		.align	1
 1276              		.global	_Z20MPU6000_SpiHighSpeedv
 1277              		.thumb
 1278              		.thumb_func
 1280              	_Z20MPU6000_SpiHighSpeedv:
 1281              	.LFB140:
 125:../Libraries/AQ_Platform_MPU6000/Platform_MPU6000.h **** 
 126:../Libraries/AQ_Platform_MPU6000/Platform_MPU6000.h **** void MPU6000_SpiHighSpeed()
 127:../Libraries/AQ_Platform_MPU6000/Platform_MPU6000.h **** {
 1282              		.loc 11 127 0
 1283              		.cfi_startproc
 1284              		@ args = 0, pretend = 0, frame = 0
 1285              		@ frame_needed = 0, uses_anonymous_args = 0
 1286 0000 10B5     		push	{r4, lr}
 1287              	.LCFI11:
 1288              		.cfi_def_cfa_offset 8
 1289              		.cfi_offset 14, -4
 1290              		.cfi_offset 4, -8
 128:../Libraries/AQ_Platform_MPU6000/Platform_MPU6000.h **** #ifndef MPU6000_I2C
 129:../Libraries/AQ_Platform_MPU6000/Platform_MPU6000.h **** 	spiMPU6000.end();
 1291              		.loc 11 129 0
 1292 0002 054C     		ldr	r4, .L79
 1293 0004 2046     		mov	r0, r4
 1294 0006 FFF7FEFF 		bl	_ZN11HardwareSPI3endEv
 130:../Libraries/AQ_Platform_MPU6000/Platform_MPU6000.h ****     spiMPU6000.begin(SPI_9MHZ, MSBFIRST, 3);
 1295              		.loc 11 130 0
 1296 000a 0121     		movs	r1, #1
 1297 000c 2046     		mov	r0, r4
 1298 000e 0A46     		mov	r2, r1
 1299 0010 0323     		movs	r3, #3
 1300 0012 FFF7FEFF 		bl	_ZN14HardwareSPIExt5beginE12SPIFrequencyjj
 131:../Libraries/AQ_Platform_MPU6000/Platform_MPU6000.h **** #endif
 132:../Libraries/AQ_Platform_MPU6000/Platform_MPU6000.h **** }
 1301              		.loc 11 132 0
 1302 0016 10BD     		pop	{r4, pc}
 1303              	.L80:
 1304              		.align	2
 1305              	.L79:
 1306 0018 00000000 		.word	.LANCHOR19
 1307              		.cfi_endproc
 1308              	.LFE140:
 1310              		.section	.text._Z16MPU6000_WriteRegih,"ax",%progbits
 1311              		.align	1
 1312              		.global	_Z16MPU6000_WriteRegih
 1313              		.thumb
 1314              		.thumb_func
 1316              	_Z16MPU6000_WriteRegih:
 1317              	.LFB141:
 133:../Libraries/AQ_Platform_MPU6000/Platform_MPU6000.h **** 
 134:../Libraries/AQ_Platform_MPU6000/Platform_MPU6000.h **** void MPU6000_WriteReg(int addr, byte data)
 135:../Libraries/AQ_Platform_MPU6000/Platform_MPU6000.h **** {
 1318              		.loc 11 135 0
 1319              		.cfi_startproc
 1320              		@ args = 0, pretend = 0, frame = 0
 1321              		@ frame_needed = 0, uses_anonymous_args = 0
 1322              	.LVL88:
 1323 0000 08B5     		push	{r3, lr}
 1324              	.LCFI12:
 1325              		.cfi_def_cfa_offset 8
 1326              		.cfi_offset 14, -4
 1327              		.cfi_offset 3, -8
 1328              		.loc 11 135 0
 1329 0002 0346     		mov	r3, r0
 1330 0004 0A46     		mov	r2, r1
 136:../Libraries/AQ_Platform_MPU6000/Platform_MPU6000.h **** #ifdef MPU6000_I2C
 137:../Libraries/AQ_Platform_MPU6000/Platform_MPU6000.h **** 	updateRegisterI2C(MPU6000_I2C_ADDRESS, addr, data);
 138:../Libraries/AQ_Platform_MPU6000/Platform_MPU6000.h **** #else
 139:../Libraries/AQ_Platform_MPU6000/Platform_MPU6000.h **** 	spiMPU6000.Write(addr, data);
 1331              		.loc 11 139 0
 1332 0006 0448     		ldr	r0, .L82
 1333              	.LVL89:
 1334 0008 1946     		mov	r1, r3
 1335              	.LVL90:
 1336 000a FFF7FEFF 		bl	_ZN14HardwareSPIExt5WriteEih
 1337              	.LVL91:
 140:../Libraries/AQ_Platform_MPU6000/Platform_MPU6000.h **** #endif
 141:../Libraries/AQ_Platform_MPU6000/Platform_MPU6000.h ****     delay(1);
 1338              		.loc 11 141 0
 1339 000e 0120     		movs	r0, #1
 142:../Libraries/AQ_Platform_MPU6000/Platform_MPU6000.h **** }
 1340              		.loc 11 142 0
 1341 0010 BDE80840 		pop	{r3, lr}
 141:../Libraries/AQ_Platform_MPU6000/Platform_MPU6000.h ****     delay(1);
 1342              		.loc 11 141 0
 1343 0014 FFF7FEBF 		b	_Z5delaym
 1344              	.L83:
 1345              		.align	2
 1346              	.L82:
 1347 0018 00000000 		.word	.LANCHOR19
 1348              		.cfi_endproc
 1349              	.LFE141:
 1351              		.section	.text._Z15MPU6000_ReadRegi,"ax",%progbits
 1352              		.align	1
 1353              		.global	_Z15MPU6000_ReadRegi
 1354              		.thumb
 1355              		.thumb_func
 1357              	_Z15MPU6000_ReadRegi:
 1358              	.LFB142:
 143:../Libraries/AQ_Platform_MPU6000/Platform_MPU6000.h **** 
 144:../Libraries/AQ_Platform_MPU6000/Platform_MPU6000.h **** byte MPU6000_ReadReg(int addr)
 145:../Libraries/AQ_Platform_MPU6000/Platform_MPU6000.h **** {
 1359              		.loc 11 145 0
 1360              		.cfi_startproc
 1361              		@ args = 0, pretend = 0, frame = 0
 1362              		@ frame_needed = 0, uses_anonymous_args = 0
 1363              	.LVL92:
 1364 0000 10B5     		push	{r4, lr}
 1365              	.LCFI13:
 1366              		.cfi_def_cfa_offset 8
 1367              		.cfi_offset 14, -4
 1368              		.cfi_offset 4, -8
 1369              		.loc 11 145 0
 1370 0002 0146     		mov	r1, r0
 1371              	.LBB35:
 146:../Libraries/AQ_Platform_MPU6000/Platform_MPU6000.h **** #ifdef MPU6000_I2C
 147:../Libraries/AQ_Platform_MPU6000/Platform_MPU6000.h **** 	sendByteI2C(MPU6000_I2C_ADDRESS, addr);
 148:../Libraries/AQ_Platform_MPU6000/Platform_MPU6000.h **** 	byte data = readByteI2C(MPU6000_I2C_ADDRESS);
 149:../Libraries/AQ_Platform_MPU6000/Platform_MPU6000.h **** #else
 150:../Libraries/AQ_Platform_MPU6000/Platform_MPU6000.h **** 	byte data = spiMPU6000.Read(addr);
 1372              		.loc 11 150 0
 1373 0004 0448     		ldr	r0, .L85
 1374              	.LVL93:
 1375 0006 FFF7FEFF 		bl	_ZN14HardwareSPIExt4ReadEi
 1376              	.LVL94:
 1377 000a 0446     		mov	r4, r0
 1378              	.LVL95:
 151:../Libraries/AQ_Platform_MPU6000/Platform_MPU6000.h **** #endif
 152:../Libraries/AQ_Platform_MPU6000/Platform_MPU6000.h ****     delay(1);
 1379              		.loc 11 152 0
 1380 000c 0120     		movs	r0, #1
 1381              	.LVL96:
 1382 000e FFF7FEFF 		bl	_Z5delaym
 1383              	.LBE35:
 153:../Libraries/AQ_Platform_MPU6000/Platform_MPU6000.h ****     return data;
 154:../Libraries/AQ_Platform_MPU6000/Platform_MPU6000.h **** }
 1384              		.loc 11 154 0
 1385 0012 2046     		mov	r0, r4
 1386 0014 10BD     		pop	{r4, pc}
 1387              	.L86:
 1388 0016 00BF     		.align	2
 1389              	.L85:
 1390 0018 00000000 		.word	.LANCHOR19
 1391              		.cfi_endproc
 1392              	.LFE142:
 1394              		.section	.text._Z24initializeMPU6000Sensorsv,"ax",%progbits
 1395              		.align	1
 1396              		.global	_Z24initializeMPU6000Sensorsv
 1397              		.thumb
 1398              		.thumb_func
 1400              	_Z24initializeMPU6000Sensorsv:
 1401              	.LFB143:
 155:../Libraries/AQ_Platform_MPU6000/Platform_MPU6000.h **** 
 156:../Libraries/AQ_Platform_MPU6000/Platform_MPU6000.h **** bool initializeMPU6000SensorsDone = false;
 157:../Libraries/AQ_Platform_MPU6000/Platform_MPU6000.h **** void initializeMPU6000Sensors()
 158:../Libraries/AQ_Platform_MPU6000/Platform_MPU6000.h **** {
 1402              		.loc 11 158 0
 1403              		.cfi_startproc
 1404              		@ args = 0, pretend = 0, frame = 0
 1405              		@ frame_needed = 0, uses_anonymous_args = 0
 1406              	.LBB36:
 159:../Libraries/AQ_Platform_MPU6000/Platform_MPU6000.h **** 	if(initializeMPU6000SensorsDone) {
 1407              		.loc 11 159 0
 1408 0000 254B     		ldr	r3, .L90
 1409              	.LBE36:
 158:../Libraries/AQ_Platform_MPU6000/Platform_MPU6000.h **** {
 1410              		.loc 11 158 0
 1411 0002 10B5     		push	{r4, lr}
 1412              	.LCFI14:
 1413              		.cfi_def_cfa_offset 8
 1414              		.cfi_offset 14, -4
 1415              		.cfi_offset 4, -8
 1416              	.LBB37:
 1417              		.loc 11 159 0
 1418 0004 1C78     		ldrb	r4, [r3, #0]	@ zero_extendqisi2
 1419 0006 002C     		cmp	r4, #0
 1420 0008 44D1     		bne	.L87
 160:../Libraries/AQ_Platform_MPU6000/Platform_MPU6000.h **** 		return;
 161:../Libraries/AQ_Platform_MPU6000/Platform_MPU6000.h **** 	}
 162:../Libraries/AQ_Platform_MPU6000/Platform_MPU6000.h **** 	initializeMPU6000SensorsDone = true;
 1421              		.loc 11 162 0
 1422 000a 0122     		movs	r2, #1
 1423 000c 1A70     		strb	r2, [r3, #0]
 163:../Libraries/AQ_Platform_MPU6000/Platform_MPU6000.h **** 
 164:../Libraries/AQ_Platform_MPU6000/Platform_MPU6000.h **** #ifdef DEBUG_INIT
 165:../Libraries/AQ_Platform_MPU6000/Platform_MPU6000.h **** 	Serial.println("initializeMPU6000Sensors");
 1424              		.loc 11 165 0
 1425 000e 2348     		ldr	r0, .L90+4
 1426 0010 2349     		ldr	r1, .L90+8
 1427 0012 FFF7FEFF 		bl	_ZN5Print7printlnEPKc
 166:../Libraries/AQ_Platform_MPU6000/Platform_MPU6000.h **** #endif
 167:../Libraries/AQ_Platform_MPU6000/Platform_MPU6000.h **** 	MPU6000_SpiLowSpeed();
 1428              		.loc 11 167 0
 1429 0016 FFF7FEFF 		bl	_Z19MPU6000_SpiLowSpeedv
 168:../Libraries/AQ_Platform_MPU6000/Platform_MPU6000.h **** 
 169:../Libraries/AQ_Platform_MPU6000/Platform_MPU6000.h **** 	unsigned char val;
 170:../Libraries/AQ_Platform_MPU6000/Platform_MPU6000.h **** 
 171:../Libraries/AQ_Platform_MPU6000/Platform_MPU6000.h **** 	val = MPU6000_ReadReg(MPUREG_WHOAMI);
 1430              		.loc 11 171 0
 1431 001a 7520     		movs	r0, #117
 1432 001c FFF7FEFF 		bl	_Z15MPU6000_ReadRegi
 1433              	.LVL97:
 172:../Libraries/AQ_Platform_MPU6000/Platform_MPU6000.h **** 	if((val&0x7E) == 0x68) {
 1434              		.loc 11 172 0
 1435 0020 00F07E00 		and	r0, r0, #126
 1436              	.LVL98:
 1437 0024 6828     		cmp	r0, #104
 1438 0026 2FD1     		bne	.L89
 173:../Libraries/AQ_Platform_MPU6000/Platform_MPU6000.h **** 		vehicleState |= GYRO_DETECTED;
 174:../Libraries/AQ_Platform_MPU6000/Platform_MPU6000.h **** 		vehicleState |= ACCEL_DETECTED;
 1439              		.loc 11 174 0
 1440 0028 1E4B     		ldr	r3, .L90+12
 1441 002a 1868     		ldr	r0, [r3, #0]
 1442 002c 40F00301 		orr	r1, r0, #3
 1443 0030 1960     		str	r1, [r3, #0]
 175:../Libraries/AQ_Platform_MPU6000/Platform_MPU6000.h **** #ifdef DEBUG_INIT
 176:../Libraries/AQ_Platform_MPU6000/Platform_MPU6000.h **** 		Serial.println("MPU6000 found");
 1444              		.loc 11 176 0
 1445 0032 1A48     		ldr	r0, .L90+4
 1446 0034 1C49     		ldr	r1, .L90+16
 1447 0036 FFF7FEFF 		bl	_ZN5Print7printlnEPKc
 177:../Libraries/AQ_Platform_MPU6000/Platform_MPU6000.h **** #endif
 178:../Libraries/AQ_Platform_MPU6000/Platform_MPU6000.h **** 	} else {
 179:../Libraries/AQ_Platform_MPU6000/Platform_MPU6000.h **** #ifdef DEBUG_INIT
 180:../Libraries/AQ_Platform_MPU6000/Platform_MPU6000.h **** 		Serial.println("MPU6000 not found");
 181:../Libraries/AQ_Platform_MPU6000/Platform_MPU6000.h **** #endif
 182:../Libraries/AQ_Platform_MPU6000/Platform_MPU6000.h **** 		return;
 183:../Libraries/AQ_Platform_MPU6000/Platform_MPU6000.h **** 	}
 184:../Libraries/AQ_Platform_MPU6000/Platform_MPU6000.h **** 
 185:../Libraries/AQ_Platform_MPU6000/Platform_MPU6000.h ****     // Chip reset
 186:../Libraries/AQ_Platform_MPU6000/Platform_MPU6000.h ****     MPU6000_WriteReg(MPUREG_PWR_MGMT_1, BIT_H_RESET);
 1448              		.loc 11 186 0
 1449 003a 8021     		movs	r1, #128
 1450 003c 6B20     		movs	r0, #107
 1451 003e FFF7FEFF 		bl	_Z16MPU6000_WriteRegih
 187:../Libraries/AQ_Platform_MPU6000/Platform_MPU6000.h ****     delay(100);  // Startup time delay
 1452              		.loc 11 187 0
 1453 0042 6420     		movs	r0, #100
 1454 0044 FFF7FEFF 		bl	_Z5delaym
 188:../Libraries/AQ_Platform_MPU6000/Platform_MPU6000.h **** 
 189:../Libraries/AQ_Platform_MPU6000/Platform_MPU6000.h **** #ifndef MPU6000_I2C
 190:../Libraries/AQ_Platform_MPU6000/Platform_MPU6000.h ****     // Disable I2C bus
 191:../Libraries/AQ_Platform_MPU6000/Platform_MPU6000.h ****     MPU6000_WriteReg(MPUREG_USER_CTRL, BIT_I2C_IF_DIS);
 1455              		.loc 11 191 0
 1456 0048 6A20     		movs	r0, #106
 1457 004a 1021     		movs	r1, #16
 1458 004c FFF7FEFF 		bl	_Z16MPU6000_WriteRegih
 192:../Libraries/AQ_Platform_MPU6000/Platform_MPU6000.h **** #endif
 193:../Libraries/AQ_Platform_MPU6000/Platform_MPU6000.h **** 
 194:../Libraries/AQ_Platform_MPU6000/Platform_MPU6000.h ****     // Wake Up device and select GyroZ clock (better performance)
 195:../Libraries/AQ_Platform_MPU6000/Platform_MPU6000.h ****     MPU6000_WriteReg(MPUREG_PWR_MGMT_1, MPU_CLK_SEL_PLLGYROZ);
 1459              		.loc 11 195 0
 1460 0050 6B20     		movs	r0, #107
 1461 0052 0321     		movs	r1, #3
 1462 0054 FFF7FEFF 		bl	_Z16MPU6000_WriteRegih
 196:../Libraries/AQ_Platform_MPU6000/Platform_MPU6000.h ****     MPU6000_WriteReg(MPUREG_PWR_MGMT_2, 0);
 1463              		.loc 11 196 0
 1464 0058 6C20     		movs	r0, #108
 1465 005a 2146     		mov	r1, r4
 1466 005c FFF7FEFF 		bl	_Z16MPU6000_WriteRegih
 197:../Libraries/AQ_Platform_MPU6000/Platform_MPU6000.h **** 
 198:../Libraries/AQ_Platform_MPU6000/Platform_MPU6000.h **** 
 199:../Libraries/AQ_Platform_MPU6000/Platform_MPU6000.h **** 	// SAMPLE RATE
 200:../Libraries/AQ_Platform_MPU6000/Platform_MPU6000.h ****     MPU6000_WriteReg(MPUREG_SMPLRT_DIV,0x00);     // Sample rate = 1kHz
 1467              		.loc 11 200 0
 1468 0060 1920     		movs	r0, #25
 1469 0062 2146     		mov	r1, r4
 1470 0064 FFF7FEFF 		bl	_Z16MPU6000_WriteRegih
 201:../Libraries/AQ_Platform_MPU6000/Platform_MPU6000.h **** 
 202:../Libraries/AQ_Platform_MPU6000/Platform_MPU6000.h **** 	// FS & DLPF   FS=1000/s, DLPF = 42Hz (low pass filter)
 203:../Libraries/AQ_Platform_MPU6000/Platform_MPU6000.h ****     MPU6000_WriteReg(MPUREG_CONFIG, BITS_DLPF_CFG_42HZ);
 1471              		.loc 11 203 0
 1472 0068 1A20     		movs	r0, #26
 1473 006a 0321     		movs	r1, #3
 1474 006c FFF7FEFF 		bl	_Z16MPU6000_WriteRegih
 204:../Libraries/AQ_Platform_MPU6000/Platform_MPU6000.h ****     MPU6000_WriteReg(MPUREG_GYRO_CONFIG,BITS_FS_1000DPS);  // Gyro scale 1000/s
 1475              		.loc 11 204 0
 1476 0070 1B20     		movs	r0, #27
 1477 0072 1021     		movs	r1, #16
 1478 0074 FFF7FEFF 		bl	_Z16MPU6000_WriteRegih
 205:../Libraries/AQ_Platform_MPU6000/Platform_MPU6000.h ****     //Serial.print("MPUREG_GYRO_CONFIG read 0x");
 206:../Libraries/AQ_Platform_MPU6000/Platform_MPU6000.h ****     //Serial.println(MPU6000_ReadReg(MPUREG_GYRO_CONFIG), 16);
 207:../Libraries/AQ_Platform_MPU6000/Platform_MPU6000.h **** 
 208:../Libraries/AQ_Platform_MPU6000/Platform_MPU6000.h ****     MPU6000_WriteReg(MPUREG_ACCEL_CONFIG,0x08);   // Accel scale +-4g (4096LSB/g)
 1479              		.loc 11 208 0
 1480 0078 1C20     		movs	r0, #28
 1481 007a 0821     		movs	r1, #8
 1482 007c FFF7FEFF 		bl	_Z16MPU6000_WriteRegih
 1483              	.LBE37:
 209:../Libraries/AQ_Platform_MPU6000/Platform_MPU6000.h **** 
 210:../Libraries/AQ_Platform_MPU6000/Platform_MPU6000.h ****     // INT CFG => Interrupt on Data Ready
 211:../Libraries/AQ_Platform_MPU6000/Platform_MPU6000.h ****     //MPU6000_WriteReg(MPUREG_INT_ENABLE,BIT_RAW_RDY_EN);        // INT: Raw data ready
 212:../Libraries/AQ_Platform_MPU6000/Platform_MPU6000.h ****     //MPU6000_WriteReg(MPUREG_INT_PIN_CFG,BIT_INT_ANYRD_2CLEAR); // INT: Clear on any read
 213:../Libraries/AQ_Platform_MPU6000/Platform_MPU6000.h **** 
 214:../Libraries/AQ_Platform_MPU6000/Platform_MPU6000.h ****     // switch to high clock rate
 215:../Libraries/AQ_Platform_MPU6000/Platform_MPU6000.h ****     MPU6000_SpiHighSpeed();
 216:../Libraries/AQ_Platform_MPU6000/Platform_MPU6000.h **** };
 1484              		.loc 11 216 0
 1485 0080 BDE81040 		pop	{r4, lr}
 1486              	.LBB38:
 215:../Libraries/AQ_Platform_MPU6000/Platform_MPU6000.h ****     MPU6000_SpiHighSpeed();
 1487              		.loc 11 215 0
 1488 0084 FFF7FEBF 		b	_Z20MPU6000_SpiHighSpeedv
 1489              	.L89:
 180:../Libraries/AQ_Platform_MPU6000/Platform_MPU6000.h **** 		Serial.println("MPU6000 not found");
 1490              		.loc 11 180 0
 1491 0088 0448     		ldr	r0, .L90+4
 1492 008a 0849     		ldr	r1, .L90+20
 1493              	.LBE38:
 1494              		.loc 11 216 0
 1495 008c BDE81040 		pop	{r4, lr}
 1496              	.LBB39:
 180:../Libraries/AQ_Platform_MPU6000/Platform_MPU6000.h **** 		Serial.println("MPU6000 not found");
 1497              		.loc 11 180 0
 1498 0090 FFF7FEBF 		b	_ZN5Print7printlnEPKc
 1499              	.L87:
 1500 0094 10BD     		pop	{r4, pc}
 1501              	.L91:
 1502 0096 00BF     		.align	2
 1503              	.L90:
 1504 0098 00000000 		.word	.LANCHOR20
 1505 009c 00000000 		.word	SerialUSB
 1506 00a0 00000000 		.word	.LC1
 1507 00a4 00000000 		.word	.LANCHOR21
 1508 00a8 19000000 		.word	.LC2
 1509 00ac 27000000 		.word	.LC3
 1510              	.LBE39:
 1511              		.cfi_endproc
 1512              	.LFE143:
 1514              		.section	.text._Z15MPU6000SwapDataPhi,"ax",%progbits
 1515              		.align	1
 1516              		.global	_Z15MPU6000SwapDataPhi
 1517              		.thumb
 1518              		.thumb_func
 1520              	_Z15MPU6000SwapDataPhi:
 1521              	.LFB144:
 217:../Libraries/AQ_Platform_MPU6000/Platform_MPU6000.h **** 
 218:../Libraries/AQ_Platform_MPU6000/Platform_MPU6000.h **** 
 219:../Libraries/AQ_Platform_MPU6000/Platform_MPU6000.h **** void MPU6000SwapData(unsigned char *data, int datalen)
 220:../Libraries/AQ_Platform_MPU6000/Platform_MPU6000.h **** {
 1522              		.loc 11 220 0
 1523              		.cfi_startproc
 1524              		@ args = 0, pretend = 0, frame = 0
 1525              		@ frame_needed = 0, uses_anonymous_args = 0
 1526              		@ link register save eliminated.
 1527              	.LVL99:
 1528              	.LBB40:
 221:../Libraries/AQ_Platform_MPU6000/Platform_MPU6000.h **** 	datalen /= 2;
 1529              		.loc 11 221 0
 1530 0000 01EBD171 		add	r1, r1, r1, lsr #31
 1531              	.LVL100:
 1532 0004 4910     		asrs	r1, r1, #1
 1533              	.LVL101:
 222:../Libraries/AQ_Platform_MPU6000/Platform_MPU6000.h **** 	while(datalen--) {
 1534              		.loc 11 222 0
 1535 0006 04E0     		b	.L93
 1536              	.LVL102:
 1537              	.L94:
 1538              	.LBB41:
 223:../Libraries/AQ_Platform_MPU6000/Platform_MPU6000.h **** 		unsigned char t = data[0];
 1539              		.loc 11 223 0
 1540 0008 0378     		ldrb	r3, [r0, #0]	@ zero_extendqisi2
 1541              	.LVL103:
 224:../Libraries/AQ_Platform_MPU6000/Platform_MPU6000.h **** 		data[0] = data[1];
 1542              		.loc 11 224 0
 1543 000a 4278     		ldrb	r2, [r0, #1]	@ zero_extendqisi2
 225:../Libraries/AQ_Platform_MPU6000/Platform_MPU6000.h **** 		data[1] = t;
 1544              		.loc 11 225 0
 1545 000c 4370     		strb	r3, [r0, #1]
 224:../Libraries/AQ_Platform_MPU6000/Platform_MPU6000.h **** 		data[0] = data[1];
 1546              		.loc 11 224 0
 1547 000e 0270     		strb	r2, [r0, #0]
 226:../Libraries/AQ_Platform_MPU6000/Platform_MPU6000.h **** 		data += 2;
 1548              		.loc 11 226 0
 1549 0010 0230     		adds	r0, r0, #2
 1550              	.LVL104:
 1551              	.L93:
 1552              	.LBE41:
 222:../Libraries/AQ_Platform_MPU6000/Platform_MPU6000.h **** 	while(datalen--) {
 1553              		.loc 11 222 0 discriminator 1
 1554 0012 11F1FF31 		adds	r1, r1, #-1
 1555              	.LVL105:
 1556 0016 F7D2     		bcs	.L94
 1557              	.LBE40:
 227:../Libraries/AQ_Platform_MPU6000/Platform_MPU6000.h **** 	}
 228:../Libraries/AQ_Platform_MPU6000/Platform_MPU6000.h **** }
 1558              		.loc 11 228 0
 1559 0018 7047     		bx	lr
 1560              		.cfi_endproc
 1561              	.LFE144:
 1563              		.section	.text._Z18readMPU6000Sensorsv,"ax",%progbits
 1564              		.align	1
 1565              		.global	_Z18readMPU6000Sensorsv
 1566              		.thumb
 1567              		.thumb_func
 1569              	_Z18readMPU6000Sensorsv:
 1570              	.LFB145:
 229:../Libraries/AQ_Platform_MPU6000/Platform_MPU6000.h **** 
 230:../Libraries/AQ_Platform_MPU6000/Platform_MPU6000.h **** void readMPU6000Sensors()
 231:../Libraries/AQ_Platform_MPU6000/Platform_MPU6000.h **** {
 1571              		.loc 11 231 0
 1572              		.cfi_startproc
 1573              		@ args = 0, pretend = 0, frame = 0
 1574              		@ frame_needed = 0, uses_anonymous_args = 0
 1575 0000 10B5     		push	{r4, lr}
 1576              	.LCFI15:
 1577              		.cfi_def_cfa_offset 8
 1578              		.cfi_offset 14, -4
 1579              		.cfi_offset 4, -8
 232:../Libraries/AQ_Platform_MPU6000/Platform_MPU6000.h **** #ifdef MPU6000_I2C
 233:../Libraries/AQ_Platform_MPU6000/Platform_MPU6000.h **** 	sendByteI2C(MPU6000_I2C_ADDRESS, MPUREG_ACCEL_XOUT_H);
 234:../Libraries/AQ_Platform_MPU6000/Platform_MPU6000.h ****     Wire.requestFrom(MPU6000_I2C_ADDRESS, sizeof(MPU6000));
 235:../Libraries/AQ_Platform_MPU6000/Platform_MPU6000.h ****     for(byte i=0; i<sizeof(MPU6000)/sizeof(short); i++) {
 236:../Libraries/AQ_Platform_MPU6000/Platform_MPU6000.h ****     	MPU6000.rawWord[i] = readWordI2C();
 237:../Libraries/AQ_Platform_MPU6000/Platform_MPU6000.h ****     }
 238:../Libraries/AQ_Platform_MPU6000/Platform_MPU6000.h **** #else
 239:../Libraries/AQ_Platform_MPU6000/Platform_MPU6000.h **** 	spiMPU6000.Read(MPUREG_ACCEL_XOUT_H, MPU6000.rawByte, sizeof(MPU6000));
 1580              		.loc 11 239 0
 1581 0002 064C     		ldr	r4, .L96
 1582 0004 0648     		ldr	r0, .L96+4
 1583 0006 3B21     		movs	r1, #59
 1584 0008 2246     		mov	r2, r4
 1585 000a 0E23     		movs	r3, #14
 1586 000c FFF7FEFF 		bl	_ZN14HardwareSPIExt4ReadEiPhi
 240:../Libraries/AQ_Platform_MPU6000/Platform_MPU6000.h **** 	MPU6000SwapData(MPU6000.rawByte, sizeof(MPU6000));
 1587              		.loc 11 240 0
 1588 0010 2046     		mov	r0, r4
 1589 0012 0E21     		movs	r1, #14
 241:../Libraries/AQ_Platform_MPU6000/Platform_MPU6000.h **** #endif
 242:../Libraries/AQ_Platform_MPU6000/Platform_MPU6000.h **** }
 1590              		.loc 11 242 0
 1591 0014 BDE81040 		pop	{r4, lr}
 240:../Libraries/AQ_Platform_MPU6000/Platform_MPU6000.h **** 	MPU6000SwapData(MPU6000.rawByte, sizeof(MPU6000));
 1592              		.loc 11 240 0
 1593 0018 FFF7FEBF 		b	_Z15MPU6000SwapDataPhi
 1594              	.L97:
 1595              		.align	2
 1596              	.L96:
 1597 001c 00000000 		.word	.LANCHOR22
 1598 0020 00000000 		.word	.LANCHOR19
 1599              		.cfi_endproc
 1600              	.LFE145:
 1602              		.section	.text._Z16readMPU6000Accelv,"ax",%progbits
 1603              		.align	1
 1604              		.global	_Z16readMPU6000Accelv
 1605              		.thumb
 1606              		.thumb_func
 1608              	_Z16readMPU6000Accelv:
 1609              	.LFB146:
 243:../Libraries/AQ_Platform_MPU6000/Platform_MPU6000.h **** 
 244:../Libraries/AQ_Platform_MPU6000/Platform_MPU6000.h **** int readMPU6000Count=0;
 245:../Libraries/AQ_Platform_MPU6000/Platform_MPU6000.h **** int readMPU6000AccelCount=0;
 246:../Libraries/AQ_Platform_MPU6000/Platform_MPU6000.h **** int readMPU6000GyroCount=0;
 247:../Libraries/AQ_Platform_MPU6000/Platform_MPU6000.h **** 
 248:../Libraries/AQ_Platform_MPU6000/Platform_MPU6000.h **** void readMPU6000Accel()
 249:../Libraries/AQ_Platform_MPU6000/Platform_MPU6000.h **** {
 1610              		.loc 11 249 0
 1611              		.cfi_startproc
 1612              		@ args = 0, pretend = 0, frame = 0
 1613              		@ frame_needed = 0, uses_anonymous_args = 0
 250:../Libraries/AQ_Platform_MPU6000/Platform_MPU6000.h **** 	readMPU6000AccelCount++;
 1614              		.loc 11 250 0
 1615 0000 0748     		ldr	r0, .L100
 249:../Libraries/AQ_Platform_MPU6000/Platform_MPU6000.h **** {
 1616              		.loc 11 249 0
 1617 0002 10B5     		push	{r4, lr}
 1618              	.LCFI16:
 1619              		.cfi_def_cfa_offset 8
 1620              		.cfi_offset 14, -4
 1621              		.cfi_offset 4, -8
 251:../Libraries/AQ_Platform_MPU6000/Platform_MPU6000.h **** 	if(readMPU6000AccelCount != readMPU6000Count) {
 1622              		.loc 11 251 0
 1623 0004 074C     		ldr	r4, .L100+4
 250:../Libraries/AQ_Platform_MPU6000/Platform_MPU6000.h **** 	readMPU6000AccelCount++;
 1624              		.loc 11 250 0
 1625 0006 0168     		ldr	r1, [r0, #0]
 1626              		.loc 11 251 0
 1627 0008 2268     		ldr	r2, [r4, #0]
 250:../Libraries/AQ_Platform_MPU6000/Platform_MPU6000.h **** 	readMPU6000AccelCount++;
 1628              		.loc 11 250 0
 1629 000a 4B1C     		adds	r3, r1, #1
 1630              		.loc 11 251 0
 1631 000c 9342     		cmp	r3, r2
 250:../Libraries/AQ_Platform_MPU6000/Platform_MPU6000.h **** 	readMPU6000AccelCount++;
 1632              		.loc 11 250 0
 1633 000e 0360     		str	r3, [r0, #0]
 1634              		.loc 11 251 0
 1635 0010 04D0     		beq	.L98
 252:../Libraries/AQ_Platform_MPU6000/Platform_MPU6000.h **** 		readMPU6000Sensors();
 1636              		.loc 11 252 0
 1637 0012 FFF7FEFF 		bl	_Z18readMPU6000Sensorsv
 253:../Libraries/AQ_Platform_MPU6000/Platform_MPU6000.h **** 		readMPU6000Count++;
 1638              		.loc 11 253 0
 1639 0016 2368     		ldr	r3, [r4, #0]
 1640 0018 5A1C     		adds	r2, r3, #1
 1641 001a 2260     		str	r2, [r4, #0]
 1642              	.L98:
 1643 001c 10BD     		pop	{r4, pc}
 1644              	.L101:
 1645 001e 00BF     		.align	2
 1646              	.L100:
 1647 0020 00000000 		.word	.LANCHOR23
 1648 0024 00000000 		.word	.LANCHOR24
 1649              		.cfi_endproc
 1650              	.LFE146:
 1652              		.section	.text._Z15readMPU6000Gyrov,"ax",%progbits
 1653              		.align	1
 1654              		.global	_Z15readMPU6000Gyrov
 1655              		.thumb
 1656              		.thumb_func
 1658              	_Z15readMPU6000Gyrov:
 1659              	.LFB147:
 254:../Libraries/AQ_Platform_MPU6000/Platform_MPU6000.h **** 	}
 255:../Libraries/AQ_Platform_MPU6000/Platform_MPU6000.h **** }
 256:../Libraries/AQ_Platform_MPU6000/Platform_MPU6000.h **** 
 257:../Libraries/AQ_Platform_MPU6000/Platform_MPU6000.h **** void readMPU6000Gyro()
 258:../Libraries/AQ_Platform_MPU6000/Platform_MPU6000.h **** {
 1660              		.loc 11 258 0
 1661              		.cfi_startproc
 1662              		@ args = 0, pretend = 0, frame = 0
 1663              		@ frame_needed = 0, uses_anonymous_args = 0
 1664 0000 10B5     		push	{r4, lr}
 1665              	.LCFI17:
 1666              		.cfi_def_cfa_offset 8
 1667              		.cfi_offset 14, -4
 1668              		.cfi_offset 4, -8
 259:../Libraries/AQ_Platform_MPU6000/Platform_MPU6000.h **** 	readMPU6000GyroCount++;
 1669              		.loc 11 259 0
 1670 0002 074C     		ldr	r4, .L104
 260:../Libraries/AQ_Platform_MPU6000/Platform_MPU6000.h **** 	if(readMPU6000GyroCount != readMPU6000Count) {
 1671              		.loc 11 260 0
 1672 0004 0748     		ldr	r0, .L104+4
 259:../Libraries/AQ_Platform_MPU6000/Platform_MPU6000.h **** 	readMPU6000GyroCount++;
 1673              		.loc 11 259 0
 1674 0006 2168     		ldr	r1, [r4, #0]
 1675              		.loc 11 260 0
 1676 0008 0268     		ldr	r2, [r0, #0]
 259:../Libraries/AQ_Platform_MPU6000/Platform_MPU6000.h **** 	readMPU6000GyroCount++;
 1677              		.loc 11 259 0
 1678 000a 4B1C     		adds	r3, r1, #1
 1679              		.loc 11 260 0
 1680 000c 9342     		cmp	r3, r2
 259:../Libraries/AQ_Platform_MPU6000/Platform_MPU6000.h **** 	readMPU6000GyroCount++;
 1681              		.loc 11 259 0
 1682 000e 2360     		str	r3, [r4, #0]
 1683              		.loc 11 260 0
 1684 0010 04D0     		beq	.L102
 261:../Libraries/AQ_Platform_MPU6000/Platform_MPU6000.h **** 		readMPU6000Sensors();
 1685              		.loc 11 261 0
 1686 0012 FFF7FEFF 		bl	_Z18readMPU6000Sensorsv
 262:../Libraries/AQ_Platform_MPU6000/Platform_MPU6000.h **** 		readMPU6000GyroCount++;
 1687              		.loc 11 262 0
 1688 0016 2368     		ldr	r3, [r4, #0]
 1689 0018 5A1C     		adds	r2, r3, #1
 1690 001a 2260     		str	r2, [r4, #0]
 1691              	.L102:
 1692 001c 10BD     		pop	{r4, pc}
 1693              	.L105:
 1694 001e 00BF     		.align	2
 1695              	.L104:
 1696 0020 00000000 		.word	.LANCHOR25
 1697 0024 00000000 		.word	.LANCHOR24
 1698              		.cfi_endproc
 1699              	.LFE147:
 1701              		.section	.text._Z14initializeGyrov,"ax",%progbits
 1702              		.align	1
 1703              		.global	_Z14initializeGyrov
 1704              		.thumb
 1705              		.thumb_func
 1707              	_Z14initializeGyrov:
 1708              	.LFB148:
 1709              		.file 12 "../Libraries/AQ_Gyroscope/Gyroscope_MPU6000.h"
   1:../Libraries/AQ_Gyroscope/Gyroscope_MPU6000.h **** /*
   2:../Libraries/AQ_Gyroscope/Gyroscope_MPU6000.h ****   AeroQuad v3.0 - May 2011
   3:../Libraries/AQ_Gyroscope/Gyroscope_MPU6000.h ****   www.AeroQuad.com
   4:../Libraries/AQ_Gyroscope/Gyroscope_MPU6000.h ****   Copyright (c) 2011 Ted Carancho.  All rights reserved.
   5:../Libraries/AQ_Gyroscope/Gyroscope_MPU6000.h ****   An Open Source Arduino based multicopter.
   6:../Libraries/AQ_Gyroscope/Gyroscope_MPU6000.h **** 
   7:../Libraries/AQ_Gyroscope/Gyroscope_MPU6000.h ****   This program is free software: you can redistribute it and/or modify
   8:../Libraries/AQ_Gyroscope/Gyroscope_MPU6000.h ****   it under the terms of the GNU General Public License as published by
   9:../Libraries/AQ_Gyroscope/Gyroscope_MPU6000.h ****   the Free Software Foundation, either version 3 of the License, or
  10:../Libraries/AQ_Gyroscope/Gyroscope_MPU6000.h ****   (at your option) any later version.
  11:../Libraries/AQ_Gyroscope/Gyroscope_MPU6000.h **** 
  12:../Libraries/AQ_Gyroscope/Gyroscope_MPU6000.h ****   This program is distributed in the hope that it will be useful,
  13:../Libraries/AQ_Gyroscope/Gyroscope_MPU6000.h ****   but WITHOUT ANY WARRANTY; without even the implied warranty of
  14:../Libraries/AQ_Gyroscope/Gyroscope_MPU6000.h ****   MERCHANTABILITY or FITNESS FOR A PARTICULAR PURPOSE. See the
  15:../Libraries/AQ_Gyroscope/Gyroscope_MPU6000.h ****   GNU General Public License for more details.
  16:../Libraries/AQ_Gyroscope/Gyroscope_MPU6000.h **** 
  17:../Libraries/AQ_Gyroscope/Gyroscope_MPU6000.h ****   You should have received a copy of the GNU General Public License
  18:../Libraries/AQ_Gyroscope/Gyroscope_MPU6000.h ****   along with this program. If not, see <http://www.gnu.org/licenses/>.
  19:../Libraries/AQ_Gyroscope/Gyroscope_MPU6000.h **** */
  20:../Libraries/AQ_Gyroscope/Gyroscope_MPU6000.h **** 
  21:../Libraries/AQ_Gyroscope/Gyroscope_MPU6000.h **** #ifndef _AEROQUAD_GYROSCOPE_MPU6000_COMMON_H_
  22:../Libraries/AQ_Gyroscope/Gyroscope_MPU6000.h **** #define _AEROQUAD_GYROSCOPE_MPU6000_COMMON_H_
  23:../Libraries/AQ_Gyroscope/Gyroscope_MPU6000.h **** 
  24:../Libraries/AQ_Gyroscope/Gyroscope_MPU6000.h **** int gyroRaw[3] = {0,0,0};
  25:../Libraries/AQ_Gyroscope/Gyroscope_MPU6000.h **** 
  26:../Libraries/AQ_Gyroscope/Gyroscope_MPU6000.h **** #include <Platform_MPU6000.h>
  27:../Libraries/AQ_Gyroscope/Gyroscope_MPU6000.h **** #include <Gyroscope.h>
  28:../Libraries/AQ_Gyroscope/Gyroscope_MPU6000.h **** 
  29:../Libraries/AQ_Gyroscope/Gyroscope_MPU6000.h **** void initializeGyro() {
 1710              		.loc 12 29 0
 1711              		.cfi_startproc
 1712              		@ args = 0, pretend = 0, frame = 0
 1713              		@ frame_needed = 0, uses_anonymous_args = 0
 1714              		@ link register save eliminated.
 1715              	.LVL106:
 1716              	.LBB42:
  30:../Libraries/AQ_Gyroscope/Gyroscope_MPU6000.h ****   float range = 2*1000.0;
  31:../Libraries/AQ_Gyroscope/Gyroscope_MPU6000.h ****   gyroScaleFactor = radians(range/65536.0);
 1717              		.loc 12 31 0
 1718 0000 024A     		ldr	r2, .L107
 1719 0002 034B     		ldr	r3, .L107+4
 1720 0004 1A60     		str	r2, [r3, #0]	@ float
 1721              	.LBE42:
  32:../Libraries/AQ_Gyroscope/Gyroscope_MPU6000.h **** 
  33:../Libraries/AQ_Gyroscope/Gyroscope_MPU6000.h ****   initializeMPU6000Sensors();
  34:../Libraries/AQ_Gyroscope/Gyroscope_MPU6000.h **** }
 1722              		.loc 12 34 0
 1723              	.LBB43:
  33:../Libraries/AQ_Gyroscope/Gyroscope_MPU6000.h ****   initializeMPU6000Sensors();
 1724              		.loc 12 33 0
 1725 0006 FFF7FEBF 		b	_Z24initializeMPU6000Sensorsv
 1726              	.L108:
 1727 000a 00BF     		.align	2
 1728              	.L107:
 1729 000c 58A00B3A 		.word	973840472
 1730 0010 00000000 		.word	.LANCHOR26
 1731              	.LBE43:
 1732              		.cfi_endproc
 1733              	.LFE148:
 1735              		.section	.text._Z17gyroUpdateHeadingv,"ax",%progbits
 1736              		.align	1
 1737              		.global	_Z17gyroUpdateHeadingv
 1738              		.thumb
 1739              		.thumb_func
 1741              	_Z17gyroUpdateHeadingv:
 1742              	.LFB149:
  35:../Libraries/AQ_Gyroscope/Gyroscope_MPU6000.h **** 
  36:../Libraries/AQ_Gyroscope/Gyroscope_MPU6000.h **** void gyroUpdateHeading()
  37:../Libraries/AQ_Gyroscope/Gyroscope_MPU6000.h **** {
 1743              		.loc 12 37 0
 1744              		.cfi_startproc
 1745              		@ args = 0, pretend = 0, frame = 0
 1746              		@ frame_needed = 0, uses_anonymous_args = 0
 1747 0000 08B5     		push	{r3, lr}
 1748              	.LCFI18:
 1749              		.cfi_def_cfa_offset 8
 1750              		.cfi_offset 14, -4
 1751              		.cfi_offset 3, -8
 1752              	.LBB44:
  38:../Libraries/AQ_Gyroscope/Gyroscope_MPU6000.h ****   long int currentTime = micros();
 1753              		.loc 12 38 0
 1754 0002 FFF7FEFF 		bl	_ZL6microsv
 1755              	.LVL107:
  39:../Libraries/AQ_Gyroscope/Gyroscope_MPU6000.h ****   if (gyroRate[ZAXIS] > (float)radians(1.0) || gyroRate[ZAXIS] < (float)radians(-1.0)) {
 1756              		.loc 12 39 0
 1757 0006 124B     		ldr	r3, .L113
 1758 0008 DFED127A 		flds	s15, .L113+4
 1759 000c 93ED027A 		flds	s14, [r3, #8]
 1760 0010 B4EEE77A 		fcmpes	s14, s15
 1761 0014 F1EE10FA 		fmstat
 1762 0018 0F4B     		ldr	r3, .L113+8
 1763 001a 06DC     		bgt	.L110
 1764              		.loc 12 39 0 is_stmt 0 discriminator 1
 1765 001c 9FED0F0A 		flds	s0, .L113+12
 1766 0020 B4EEC07A 		fcmpes	s14, s0
 1767 0024 F1EE10FA 		fmstat
 1768 0028 10D5     		bpl	.L111
 1769              	.L110:
  40:../Libraries/AQ_Gyroscope/Gyroscope_MPU6000.h ****     gyroHeading += gyroRate[ZAXIS] * ((currentTime - gyroLastMesuredTime) / 1000000.0);
 1770              		.loc 12 40 0 is_stmt 1
 1771 002a 1968     		ldr	r1, [r3, #0]
 1772 002c 0C4A     		ldr	r2, .L113+16
 1773 002e 411A     		subs	r1, r0, r1
 1774 0030 01EE901A 		fmsr	s3, r1	@ int
 1775 0034 9FED0B1A 		flds	s2, .L113+20
 1776 0038 F8EE616A 		fuitos	s13, s3
 1777 003c D2ED000A 		flds	s1, [r2, #0]
 1778 0040 C6EE816A 		fdivs	s13, s13, s2
 1779 0044 47EE260A 		fmacs	s1, s14, s13
 1780 0048 C2ED000A 		fsts	s1, [r2, #0]
 1781              	.L111:
  41:../Libraries/AQ_Gyroscope/Gyroscope_MPU6000.h ****   }
  42:../Libraries/AQ_Gyroscope/Gyroscope_MPU6000.h ****   gyroLastMesuredTime = currentTime;
 1782              		.loc 12 42 0
 1783 004c 1860     		str	r0, [r3, #0]
 1784              	.LBE44:
  43:../Libraries/AQ_Gyroscope/Gyroscope_MPU6000.h **** }
 1785              		.loc 12 43 0
 1786 004e 08BD     		pop	{r3, pc}
 1787              	.L114:
 1788              		.align	2
 1789              	.L113:
 1790 0050 00000000 		.word	.LANCHOR27
 1791 0054 35FA8E3C 		.word	1016003125
 1792 0058 00000000 		.word	.LANCHOR29
 1793 005c 35FA8EBC 		.word	-1131480523
 1794 0060 00000000 		.word	.LANCHOR28
 1795 0064 00247449 		.word	1232348160
 1796              		.cfi_endproc
 1797              	.LFE149:
 1799              		.section	.text._Z11measureGyrov,"ax",%progbits
 1800              		.align	1
 1801              		.global	_Z11measureGyrov
 1802              		.thumb
 1803              		.thumb_func
 1805              	_Z11measureGyrov:
 1806              	.LFB150:
  44:../Libraries/AQ_Gyroscope/Gyroscope_MPU6000.h **** 
  45:../Libraries/AQ_Gyroscope/Gyroscope_MPU6000.h **** void measureGyro() {
 1807              		.loc 12 45 0
 1808              		.cfi_startproc
 1809              		@ args = 0, pretend = 0, frame = 16
 1810              		@ frame_needed = 0, uses_anonymous_args = 0
 1811 0000 30B5     		push	{r4, r5, lr}
 1812              	.LCFI19:
 1813              		.cfi_def_cfa_offset 12
 1814              		.cfi_offset 14, -4
 1815              		.cfi_offset 5, -8
 1816              		.cfi_offset 4, -12
 1817 0002 85B0     		sub	sp, sp, #20
 1818              	.LCFI20:
 1819              		.cfi_def_cfa_offset 32
 1820              	.LBB45:
  46:../Libraries/AQ_Gyroscope/Gyroscope_MPU6000.h ****   readMPU6000Gyro();
 1821              		.loc 12 46 0
 1822 0004 FFF7FEFF 		bl	_Z15readMPU6000Gyrov
  47:../Libraries/AQ_Gyroscope/Gyroscope_MPU6000.h **** 
  48:../Libraries/AQ_Gyroscope/Gyroscope_MPU6000.h ****   int gyroADC[3];
  49:../Libraries/AQ_Gyroscope/Gyroscope_MPU6000.h ****   gyroADC[XAXIS] = (gyroRaw[XAXIS]=MPU6000.data.gyro.x)  - gyroZero[XAXIS];
 1823              		.loc 12 49 0
 1824 0008 1A4A     		ldr	r2, .L116
 1825 000a 1B49     		ldr	r1, .L116+4
 1826 000c B2F90850 		ldrsh	r5, [r2, #8]
 1827 0010 1A4B     		ldr	r3, .L116+8
 1828 0012 0C68     		ldr	r4, [r1, #0]
 1829 0014 1D60     		str	r5, [r3, #0]
 1830 0016 2C1B     		subs	r4, r5, r4
  50:../Libraries/AQ_Gyroscope/Gyroscope_MPU6000.h ****   gyroADC[YAXIS] = gyroZero[YAXIS] - (gyroRaw[YAXIS]=MPU6000.data.gyro.y);
 1831              		.loc 12 50 0
 1832 0018 B2F90A00 		ldrsh	r0, [r2, #10]
 1833 001c 4D68     		ldr	r5, [r1, #4]
  51:../Libraries/AQ_Gyroscope/Gyroscope_MPU6000.h ****   gyroADC[ZAXIS] = gyroZero[ZAXIS] - (gyroRaw[ZAXIS]=MPU6000.data.gyro.z);
 1834              		.loc 12 51 0
 1835 001e B2F90C20 		ldrsh	r2, [r2, #12]
 1836 0022 8968     		ldr	r1, [r1, #8]
  50:../Libraries/AQ_Gyroscope/Gyroscope_MPU6000.h ****   gyroADC[YAXIS] = gyroZero[YAXIS] - (gyroRaw[YAXIS]=MPU6000.data.gyro.y);
 1837              		.loc 12 50 0
 1838 0024 5860     		str	r0, [r3, #4]
 1839              		.loc 12 51 0
 1840 0026 9A60     		str	r2, [r3, #8]
  50:../Libraries/AQ_Gyroscope/Gyroscope_MPU6000.h ****   gyroADC[YAXIS] = gyroZero[YAXIS] - (gyroRaw[YAXIS]=MPU6000.data.gyro.y);
 1841              		.loc 12 50 0
 1842 0028 281A     		subs	r0, r5, r0
 1843              		.loc 12 51 0
 1844 002a 8A1A     		subs	r2, r1, r2
 1845              	.LBB46:
  52:../Libraries/AQ_Gyroscope/Gyroscope_MPU6000.h **** 
  53:../Libraries/AQ_Gyroscope/Gyroscope_MPU6000.h ****   for (byte axis = 0; axis <= ZAXIS; axis++) {
  54:../Libraries/AQ_Gyroscope/Gyroscope_MPU6000.h ****     gyroRate[axis] = gyroADC[axis] * gyroScaleFactor;
 1846              		.loc 12 54 0
 1847 002c 01EE904A 		fmsr	s3, r4	@ int
 1848 0030 1349     		ldr	r1, .L116+12
 1849 0032 144B     		ldr	r3, .L116+16
 1850              	.LBE46:
  49:../Libraries/AQ_Gyroscope/Gyroscope_MPU6000.h ****   gyroADC[XAXIS] = (gyroRaw[XAXIS]=MPU6000.data.gyro.x)  - gyroZero[XAXIS];
 1851              		.loc 12 49 0
 1852 0034 0194     		str	r4, [sp, #4]
 1853              	.LBB47:
 1854              		.loc 12 54 0
 1855 0036 00EE900A 		fmsr	s1, r0	@ int
 1856 003a 06EE902A 		fmsr	s13, r2	@ int
 1857 003e D1ED007A 		flds	s15, [r1, #0]
 1858 0042 B8EEE11A 		fsitos	s2, s3
 1859 0046 B8EEE00A 		fsitos	s0, s1
 1860 004a B8EEE67A 		fsitos	s14, s13
 1861 004e 21EE271A 		fmuls	s2, s2, s15
 1862 0052 20EE270A 		fmuls	s0, s0, s15
 1863 0056 67EE277A 		fmuls	s15, s14, s15
 1864              	.LBE47:
  50:../Libraries/AQ_Gyroscope/Gyroscope_MPU6000.h ****   gyroADC[YAXIS] = gyroZero[YAXIS] - (gyroRaw[YAXIS]=MPU6000.data.gyro.y);
 1865              		.loc 12 50 0
 1866 005a 0290     		str	r0, [sp, #8]
  51:../Libraries/AQ_Gyroscope/Gyroscope_MPU6000.h ****   gyroADC[ZAXIS] = gyroZero[ZAXIS] - (gyroRaw[ZAXIS]=MPU6000.data.gyro.z);
 1867              		.loc 12 51 0
 1868 005c 0392     		str	r2, [sp, #12]
 1869              	.LVL108:
 1870              	.LBB48:
 1871              		.loc 12 54 0
 1872 005e 83ED001A 		fsts	s2, [r3, #0]
 1873              	.LVL109:
 1874 0062 83ED010A 		fsts	s0, [r3, #4]
 1875              	.LVL110:
 1876 0066 C3ED027A 		fsts	s15, [r3, #8]
 1877              	.LVL111:
 1878              	.LBE48:
 1879              	.LBE45:
  55:../Libraries/AQ_Gyroscope/Gyroscope_MPU6000.h ****   }
  56:../Libraries/AQ_Gyroscope/Gyroscope_MPU6000.h **** 
  57:../Libraries/AQ_Gyroscope/Gyroscope_MPU6000.h ****   gyroUpdateHeading();
  58:../Libraries/AQ_Gyroscope/Gyroscope_MPU6000.h **** }
 1880              		.loc 12 58 0
 1881 006a 05B0     		add	sp, sp, #20
 1882 006c BDE83040 		pop	{r4, r5, lr}
 1883              	.LBB49:
  57:../Libraries/AQ_Gyroscope/Gyroscope_MPU6000.h ****   gyroUpdateHeading();
 1884              		.loc 12 57 0
 1885 0070 FFF7FEBF 		b	_Z17gyroUpdateHeadingv
 1886              	.L117:
 1887              		.align	2
 1888              	.L116:
 1889 0074 00000000 		.word	.LANCHOR22
 1890 0078 00000000 		.word	.LANCHOR31
 1891 007c 00000000 		.word	.LANCHOR30
 1892 0080 00000000 		.word	.LANCHOR26
 1893 0084 00000000 		.word	.LANCHOR27
 1894              	.LBE49:
 1895              		.cfi_endproc
 1896              	.LFE150:
 1898              		.section	.text._Z14measureGyroSumv,"ax",%progbits
 1899              		.align	1
 1900              		.global	_Z14measureGyroSumv
 1901              		.thumb
 1902              		.thumb_func
 1904              	_Z14measureGyroSumv:
 1905              	.LFB151:
  59:../Libraries/AQ_Gyroscope/Gyroscope_MPU6000.h **** 
  60:../Libraries/AQ_Gyroscope/Gyroscope_MPU6000.h **** void measureGyroSum() {
 1906              		.loc 12 60 0
 1907              		.cfi_startproc
 1908              		@ args = 0, pretend = 0, frame = 0
 1909              		@ frame_needed = 0, uses_anonymous_args = 0
 1910 0000 10B5     		push	{r4, lr}
 1911              	.LCFI21:
 1912              		.cfi_def_cfa_offset 8
 1913              		.cfi_offset 14, -4
 1914              		.cfi_offset 4, -8
  61:../Libraries/AQ_Gyroscope/Gyroscope_MPU6000.h ****   readMPU6000Gyro();
 1915              		.loc 12 61 0
 1916 0002 FFF7FEFF 		bl	_Z15readMPU6000Gyrov
  62:../Libraries/AQ_Gyroscope/Gyroscope_MPU6000.h ****   gyroSample[XAXIS] += (gyroRaw[XAXIS]=MPU6000.data.gyro.x);
 1917              		.loc 12 62 0
 1918 0006 0D4B     		ldr	r3, .L119
 1919 0008 0D49     		ldr	r1, .L119+4
 1920 000a 1C68     		ldr	r4, [r3, #0]
 1921 000c B1F90800 		ldrsh	r0, [r1, #8]
 1922 0010 0C4A     		ldr	r2, .L119+8
 1923 0012 2418     		adds	r4, r4, r0
 1924 0014 1C60     		str	r4, [r3, #0]
 1925 0016 1060     		str	r0, [r2, #0]
  63:../Libraries/AQ_Gyroscope/Gyroscope_MPU6000.h ****   gyroSample[YAXIS] += (gyroRaw[YAXIS]=MPU6000.data.gyro.y);
 1926              		.loc 12 63 0
 1927 0018 5C68     		ldr	r4, [r3, #4]
 1928 001a B1F90A00 		ldrsh	r0, [r1, #10]
  64:../Libraries/AQ_Gyroscope/Gyroscope_MPU6000.h ****   gyroSample[ZAXIS] += (gyroRaw[ZAXIS]=MPU6000.data.gyro.z);
 1929              		.loc 12 64 0
 1930 001e B1F90C10 		ldrsh	r1, [r1, #12]
  63:../Libraries/AQ_Gyroscope/Gyroscope_MPU6000.h ****   gyroSample[YAXIS] += (gyroRaw[YAXIS]=MPU6000.data.gyro.y);
 1931              		.loc 12 63 0
 1932 0022 5060     		str	r0, [r2, #4]
 1933 0024 2018     		adds	r0, r4, r0
 1934 0026 5860     		str	r0, [r3, #4]
 1935              		.loc 12 64 0
 1936 0028 9868     		ldr	r0, [r3, #8]
 1937 002a 9160     		str	r1, [r2, #8]
 1938 002c 4118     		adds	r1, r0, r1
 1939 002e 9960     		str	r1, [r3, #8]
  65:../Libraries/AQ_Gyroscope/Gyroscope_MPU6000.h **** 
  66:../Libraries/AQ_Gyroscope/Gyroscope_MPU6000.h ****   gyroSampleCount++;
 1940              		.loc 12 66 0
 1941 0030 054B     		ldr	r3, .L119+12
 1942 0032 1878     		ldrb	r0, [r3, #0]	@ zero_extendqisi2
 1943 0034 421C     		adds	r2, r0, #1
 1944 0036 1A70     		strb	r2, [r3, #0]
  67:../Libraries/AQ_Gyroscope/Gyroscope_MPU6000.h **** }
 1945              		.loc 12 67 0
 1946 0038 10BD     		pop	{r4, pc}
 1947              	.L120:
 1948 003a 00BF     		.align	2
 1949              	.L119:
 1950 003c 00000000 		.word	.LANCHOR32
 1951 0040 00000000 		.word	.LANCHOR22
 1952 0044 00000000 		.word	.LANCHOR30
 1953 0048 00000000 		.word	.LANCHOR33
 1954              		.cfi_endproc
 1955              	.LFE151:
 1957              		.section	.text._Z16evaluateGyroRatev,"ax",%progbits
 1958              		.align	1
 1959              		.global	_Z16evaluateGyroRatev
 1960              		.thumb
 1961              		.thumb_func
 1963              	_Z16evaluateGyroRatev:
 1964              	.LFB152:
  68:../Libraries/AQ_Gyroscope/Gyroscope_MPU6000.h **** 
  69:../Libraries/AQ_Gyroscope/Gyroscope_MPU6000.h **** void evaluateGyroRate() {
 1965              		.loc 12 69 0
 1966              		.cfi_startproc
 1967              		@ args = 0, pretend = 0, frame = 16
 1968              		@ frame_needed = 0, uses_anonymous_args = 0
 1969 0000 7FB5     		push	{r0, r1, r2, r3, r4, r5, r6, lr}
 1970              	.LCFI22:
 1971              		.cfi_def_cfa_offset 32
 1972              		.cfi_offset 14, -4
 1973              		.cfi_offset 6, -8
 1974              		.cfi_offset 5, -12
 1975              		.cfi_offset 4, -16
 1976              		.cfi_offset 3, -20
 1977              		.cfi_offset 2, -24
 1978              		.cfi_offset 1, -28
 1979              		.cfi_offset 0, -32
 1980              	.LBB50:
  70:../Libraries/AQ_Gyroscope/Gyroscope_MPU6000.h ****   int gyroADC[3];
  71:../Libraries/AQ_Gyroscope/Gyroscope_MPU6000.h ****   gyroADC[XAXIS] = (gyroSample[XAXIS] / gyroSampleCount) - gyroZero[XAXIS];
 1981              		.loc 12 71 0
 1982 0002 1F4B     		ldr	r3, .L122
 1983 0004 1F4D     		ldr	r5, .L122+4
 1984 0006 1A68     		ldr	r2, [r3, #0]
 1985 0008 95F800C0 		ldrb	ip, [r5, #0]	@ zero_extendqisi2
  72:../Libraries/AQ_Gyroscope/Gyroscope_MPU6000.h ****   gyroADC[YAXIS] = gyroZero[YAXIS] - (gyroSample[YAXIS] / gyroSampleCount);
 1986              		.loc 12 72 0
 1987 000c 5968     		ldr	r1, [r3, #4]
  71:../Libraries/AQ_Gyroscope/Gyroscope_MPU6000.h ****   gyroADC[XAXIS] = (gyroSample[XAXIS] / gyroSampleCount) - gyroZero[XAXIS];
 1988              		.loc 12 71 0
 1989 000e 92FBFCF4 		sdiv	r4, r2, ip
 1990 0012 1D4A     		ldr	r2, .L122+8
 1991              		.loc 12 72 0
 1992 0014 92E84100 		ldmia	r2, {r0, r6}
  71:../Libraries/AQ_Gyroscope/Gyroscope_MPU6000.h ****   gyroADC[XAXIS] = (gyroSample[XAXIS] / gyroSampleCount) - gyroZero[XAXIS];
 1993              		.loc 12 71 0
 1994 0018 241A     		subs	r4, r4, r0
 1995              		.loc 12 72 0
 1996 001a 91FBFCF0 		sdiv	r0, r1, ip
 1997 001e 301A     		subs	r0, r6, r0
  73:../Libraries/AQ_Gyroscope/Gyroscope_MPU6000.h ****   gyroADC[ZAXIS] = gyroZero[ZAXIS] - (gyroSample[ZAXIS] / gyroSampleCount);
 1998              		.loc 12 73 0
 1999 0020 9E68     		ldr	r6, [r3, #8]
 2000 0022 9168     		ldr	r1, [r2, #8]
  71:../Libraries/AQ_Gyroscope/Gyroscope_MPU6000.h ****   gyroADC[XAXIS] = (gyroSample[XAXIS] / gyroSampleCount) - gyroZero[XAXIS];
 2001              		.loc 12 71 0
 2002 0024 0194     		str	r4, [sp, #4]
 2003              		.loc 12 73 0
 2004 0026 96FBFCFC 		sdiv	ip, r6, ip
